                              1 ;--------------------------------------------------------
                              2 ; File Created by SDCC : FreeWare ANSI-C Compiler
                              3 ; Version 2.3.1 Mon Apr 20 00:06:07 2020
                              4 
                              5 ;--------------------------------------------------------
                              6 	.module lcc31460
                              7 	
                              8 ;--------------------------------------------------------
                              9 ; Public variables in this module
                             10 ;--------------------------------------------------------
                             11 	.globl _main
                             12 	.globl _movefood
                             13 	.globl _move_snake
                             14 	.globl _background_collision
                             15 	.globl _head_tail_collision
                             16 	.globl _sprite_collision
                             17 	.globl _game_over_screen
                             18 	.globl _wait
                             19 	.globl _FOOD_TURNIP
                             20 	.globl _FOOD_CARROT
                             21 	.globl _FOOD_BISCUIT
                             22 	.globl _FOOD_NTILES
                             23 	.globl _FOOD_MEMIND
                             24 	.globl _SNAKE_BODY
                             25 	.globl _SNAKE_DEAD_HEAD_L
                             26 	.globl _SNAKE_DEAD_HEAD_UP
                             27 	.globl _SNAKE_HEAD_L
                             28 	.globl _SNAKE_HEAD_UP
                             29 	.globl _SNAKE_NTILES
                             30 	.globl _SNAKE_MEMIND
                             31 	.globl _SCREEN_HEIGHT
                             32 	.globl _SCREEN_T
                             33 	.globl _SCREEN_WIDTH
                             34 	.globl _SCREEN_L
                             35 	.globl _bkg_map
                             36 	.globl _bkg_tiles
                             37 	.globl _food
                             38 	.globl _snake_round_sprite
                             39 ;--------------------------------------------------------
                             40 ; special function registers
                             41 ;--------------------------------------------------------
                             42 ;--------------------------------------------------------
                             43 ; special function bits 
                             44 ;--------------------------------------------------------
                             45 ;--------------------------------------------------------
                             46 ; internal ram data
                             47 ;--------------------------------------------------------
                             48 	.area _DATA
   0000                      49 _snake_round_sprite::
   0000                      50 	.ds 80
   0050                      51 _food::
   0050                      52 	.ds 48
   0080                      53 _bkg_tiles::
   0080                      54 	.ds 208
   0150                      55 _bkg_map::
   0150                      56 	.ds 360
   02B8                      57 _SCREEN_L::
   02B8                      58 	.ds 1
   02B9                      59 _SCREEN_WIDTH::
   02B9                      60 	.ds 1
   02BA                      61 _SCREEN_T::
   02BA                      62 	.ds 1
   02BB                      63 _SCREEN_HEIGHT::
   02BB                      64 	.ds 1
   02BC                      65 _SNAKE_MEMIND::
   02BC                      66 	.ds 1
   02BD                      67 _SNAKE_NTILES::
   02BD                      68 	.ds 1
   02BE                      69 _SNAKE_HEAD_UP::
   02BE                      70 	.ds 1
   02BF                      71 _SNAKE_HEAD_L::
   02BF                      72 	.ds 1
   02C0                      73 _SNAKE_DEAD_HEAD_UP::
   02C0                      74 	.ds 1
   02C1                      75 _SNAKE_DEAD_HEAD_L::
   02C1                      76 	.ds 1
   02C2                      77 _SNAKE_BODY::
   02C2                      78 	.ds 1
   02C3                      79 _FOOD_MEMIND::
   02C3                      80 	.ds 1
   02C4                      81 _FOOD_NTILES::
   02C4                      82 	.ds 1
   02C5                      83 _FOOD_BISCUIT::
   02C5                      84 	.ds 1
   02C6                      85 _FOOD_CARROT::
   02C6                      86 	.ds 1
   02C7                      87 _FOOD_TURNIP::
   02C7                      88 	.ds 1
                             89 ;--------------------------------------------------------
                             90 ; overlayable items in internal ram 
                             91 ;--------------------------------------------------------
                             92 	.area _OVERLAY
                             93 ;--------------------------------------------------------
                             94 ; indirectly addressable internal ram data
                             95 ;--------------------------------------------------------
                             96 	.area _ISEG
                             97 ;--------------------------------------------------------
                             98 ; bit data
                             99 ;--------------------------------------------------------
                            100 	.area _BSEG
                            101 ;--------------------------------------------------------
                            102 ; external ram data
                            103 ;--------------------------------------------------------
                            104 	.area _XSEG
                            105 ;--------------------------------------------------------
                            106 ; global & static initialisations
                            107 ;--------------------------------------------------------
                            108 	.area _GSINIT
                            109 	.area _GSFINAL
                            110 	.area _GSINIT
                            111 ;	main.c 26
                            112 ;	main.c 442
                            113 ;	genArrayInit
                            114 ; _saveRegsForCall: sendSetSize: 0 deInUse: 0 bcInUse: 0 deSending: 0
   0000 21 00 00            115 	ld	hl,#_snake_round_sprite
   0003 CD 00 00            116 	call	__initrleblock
   0006 50                  117 	.db	80
   0007 18 18 3C 24 3C 24   118 	.db	0x18, 0x18, 0x3C, 0x24, 0x3C, 0x24, 0x7E, 0x42
        7E 42
   000F E7 BD A5 DB 42 7E   119 	.db	0xE7, 0xBD, 0xA5, 0xDB, 0x42, 0x7E, 0x3C, 0x3C
        3C 3C
   0017 0C 0C 1A 16 7D 6B   120 	.db	0x0C, 0x0C, 0x1A, 0x16, 0x7D, 0x6B, 0xF1, 0x8F
        F1 8F
   001F F1 8F 7D 6B 1A 16   121 	.db	0xF1, 0x8F, 0x7D, 0x6B, 0x1A, 0x16, 0x0C, 0x0C
        0C 0C
   0027 18 18 3C 24 3C 24   122 	.db	0x18, 0x18, 0x3C, 0x24, 0x3C, 0x24, 0x7E, 0x42
        7E 42
   002F FF BD A5 DB 42 7E   123 	.db	0xFF, 0xBD, 0xA5, 0xDB, 0x42, 0x7E, 0x3C, 0x3C
        3C 3C
   0037 0C 0C 1A 16 7D 6B   124 	.db	0x0C, 0x0C, 0x1A, 0x16, 0x7D, 0x6B, 0xF9, 0x8F
        F9 8F
   003F F9 8F 7D 6B 1A 16   125 	.db	0xF9, 0x8F, 0x7D, 0x6B, 0x1A, 0x16, 0x0C, 0x0C
        0C 0C
   0047 3C 18 66 3C DB 66   126 	.db	0x3C, 0x18, 0x66, 0x3C, 0xDB, 0x66, 0xBD, 0xC3
        BD C3
   004F BD C3 DB 66 66 3C   127 	.db	0xBD, 0xC3, 0xDB, 0x66, 0x66, 0x3C, 0x3C, 0x18
        3C 18
   0057 00                  128 	.db	0
                            129 ;	main.c 26
                            130 ;	main.c 442
                            131 ;	genArrayInit
                            132 ; _saveRegsForCall: sendSetSize: 0 deInUse: 0 bcInUse: 0 deSending: 0
   0058 21 50 00            133 	ld	hl,#_food
   005B CD 00 00            134 	call	__initrleblock
   005E 30                  135 	.db	48
   005F 00 00 3C 3C 62 7E   136 	.db	0x00, 0x00, 0x3C, 0x3C, 0x62, 0x7E, 0x4A, 0x7E
        4A 7E
   0067 52 7E 46 7E 3C 3C   137 	.db	0x52, 0x7E, 0x46, 0x7E, 0x3C, 0x3C, 0x00, 0x00
        00 00
   006F 00 00 28 28 10 10   138 	.db	0x00, 0x00, 0x28, 0x28, 0x10, 0x10, 0x7C, 0x7C
        7C 7C
   0077 44 7C 44 7C 28 38   139 	.db	0x44, 0x7C, 0x44, 0x7C, 0x28, 0x38, 0x10, 0x10
        10 10
   007F 54 54 38 38 10 10   140 	.db	0x54, 0x54, 0x38, 0x38, 0x10, 0x10, 0x7C, 0x7C
        7C 7C
   0087 44 7C 44 7C 44 7C   141 	.db	0x44, 0x7C, 0x44, 0x7C, 0x44, 0x7C, 0x38, 0x38
        38 38
   008F 00                  142 	.db	0
                            143 ;	main.c 26
                            144 ;	main.c 442
                            145 ;	genArrayInit
                            146 ; _saveRegsForCall: sendSetSize: 0 deInUse: 0 bcInUse: 0 deSending: 0
   0090 21 80 00            147 	ld	hl,#_bkg_tiles
   0093 CD 00 00            148 	call	__initrleblock
   0096 F0 00               149 	.db	-16,0x00
   0098 7F                  150 	.db	127
   0099 7E 7E C3 FF A5 FF   151 	.db	0x7E, 0x7E, 0xC3, 0xFF, 0xA5, 0xFF, 0x99, 0xE7
        99 E7
   00A1 99 E7 A5 FF C3 FF   152 	.db	0x99, 0xE7, 0xA5, 0xFF, 0xC3, 0xFF, 0x7E, 0x7E
        7E 7E
   00A9 3C 3C 7E 42 FF A5   153 	.db	0x3C, 0x3C, 0x7E, 0x42, 0xFF, 0xA5, 0xFF, 0x99
        FF 99
   00B1 FF 99 FF A5 7E 42   154 	.db	0xFF, 0x99, 0xFF, 0xA5, 0x7E, 0x42, 0x3C, 0x3C
        3C 3C
   00B9 20 20 10 10 28 28   155 	.db	0x20, 0x20, 0x10, 0x10, 0x28, 0x28, 0xC7, 0xC7
        C7 C7
   00C1 08 08 04 04 0A 0A   156 	.db	0x08, 0x08, 0x04, 0x04, 0x0A, 0x0A, 0xF1, 0xF1
        F1 F1
   00C9 FF FF 00 00 3C 3C   157 	.db	0xFF, 0xFF, 0x00, 0x00, 0x3C, 0x3C, 0xC3, 0xC3
        C3 C3
   00D1 00 00 3C 3C C3 C3   158 	.db	0x00, 0x00, 0x3C, 0x3C, 0xC3, 0xC3, 0x00, 0x00
        00 00
   00D9 FF FF 80 80 B3 B3   159 	.db	0xFF, 0xFF, 0x80, 0x80, 0xB3, 0xB3, 0xCC, 0xCC
        CC CC
   00E1 80 80 B3 B3 CC CC   160 	.db	0x80, 0x80, 0xB3, 0xB3, 0xCC, 0xCC, 0x80, 0x80
        80 80
   00E9 FF FF 01 01 CD CD   161 	.db	0xFF, 0xFF, 0x01, 0x01, 0xCD, 0xCD, 0x33, 0x33
        33 33
   00F1 01 01 CD CD 33 33   162 	.db	0x01, 0x01, 0xCD, 0xCD, 0x33, 0x33, 0x01, 0x01
        01 01
   00F9 80 80 B3 B3 CC CC   163 	.db	0x80, 0x80, 0xB3, 0xB3, 0xCC, 0xCC, 0x80, 0x80
        80 80
   0101 B3 B3 CC CC 80 80   164 	.db	0xB3, 0xB3, 0xCC, 0xCC, 0x80, 0x80, 0x80, 0x80
        80 80
   0109 01 01 CD CD 33 33   165 	.db	0x01, 0x01, 0xCD, 0xCD, 0x33, 0x33, 0x01, 0x01
        01 01
   0111 CD CD 33 33 01 01   166 	.db	0xCD, 0xCD, 0x33, 0x33, 0x01, 0x01, 0x01
        01
   0118 0D                  167 	.db	13
   0119 01 00 00 33 33 CC   168 	.db	0x01, 0x00, 0x00, 0x33, 0x33, 0xCC, 0xCC, 0x00
        CC 00
   0121 00 33 33 CC CC      169 	.db	0x00, 0x33, 0x33, 0xCC, 0xCC
   0126 FA 00               170 	.db	-6,0x00
   0128 2E                  171 	.db	46
   0129 C3 C3 3C 3C 00 00   172 	.db	0xC3, 0xC3, 0x3C, 0x3C, 0x00, 0x00, 0xC3, 0xC3
        C3 C3
   0131 3C 3C 00 00 FF FF   173 	.db	0x3C, 0x3C, 0x00, 0x00, 0xFF, 0xFF, 0x80, 0x80
        80 80
   0139 CC CC B3 B3 80 80   174 	.db	0xCC, 0xCC, 0xB3, 0xB3, 0x80, 0x80, 0xCC, 0xCC
        CC CC
   0141 B3 B3 80 80 FF FF   175 	.db	0xB3, 0xB3, 0x80, 0x80, 0xFF, 0xFF, 0x01, 0x01
        01 01
   0149 33 33 CD CD 01 01   176 	.db	0x33, 0x33, 0xCD, 0xCD, 0x01, 0x01, 0x33, 0x33
        33 33
   0151 CD CD 01 01 FF FF   177 	.db	0xCD, 0xCD, 0x01, 0x01, 0xFF, 0xFF
   0157 00                  178 	.db	0
                            179 ;	main.c 25
                            180 ;	main.c 442
                            181 ;	genArrayInit
                            182 ; _saveRegsForCall: sendSetSize: 0 deInUse: 0 bcInUse: 0 deSending: 0
   0158 21 50 01            183 	ld	hl,#_bkg_map
   015B CD 00 00            184 	call	__initrleblock
   015E D4 00               185 	.db	-44,0x00
   0160 F4 01               186 	.db	-12,0x01
   0162 F9 00               187 	.db	-7,0x00
   0164 01                  188 	.db	1
   0165 01                  189 	.db	0x01
   0166 F4 02               190 	.db	-12,0x02
   0168 01                  191 	.db	1
   0169 01                  192 	.db	0x01
   016A FA 00               193 	.db	-6,0x00
   016C 02                  194 	.db	2
   016D 01 02               195 	.db	0x01, 0x02
   016F F6 00               196 	.db	-10,0x00
   0171 02                  197 	.db	2
   0172 02 01               198 	.db	0x02, 0x01
   0174 FA 00               199 	.db	-6,0x00
   0176 02                  200 	.db	2
   0177 01 02               201 	.db	0x01, 0x02
   0179 F6 00               202 	.db	-10,0x00
   017B 02                  203 	.db	2
   017C 02 01               204 	.db	0x02, 0x01
   017E FA 00               205 	.db	-6,0x00
   0180 02                  206 	.db	2
   0181 01 02               207 	.db	0x01, 0x02
   0183 F6 00               208 	.db	-10,0x00
   0185 02                  209 	.db	2
   0186 02 01               210 	.db	0x02, 0x01
   0188 FA 00               211 	.db	-6,0x00
   018A 02                  212 	.db	2
   018B 01 02               213 	.db	0x01, 0x02
   018D F6 00               214 	.db	-10,0x00
   018F 02                  215 	.db	2
   0190 02 01               216 	.db	0x02, 0x01
   0192 FA 00               217 	.db	-6,0x00
   0194 02                  218 	.db	2
   0195 01 02               219 	.db	0x01, 0x02
   0197 F6 00               220 	.db	-10,0x00
   0199 02                  221 	.db	2
   019A 02 01               222 	.db	0x02, 0x01
   019C FA 00               223 	.db	-6,0x00
   019E 02                  224 	.db	2
   019F 01 02               225 	.db	0x01, 0x02
   01A1 F6 00               226 	.db	-10,0x00
   01A3 02                  227 	.db	2
   01A4 02 01               228 	.db	0x02, 0x01
   01A6 FA 00               229 	.db	-6,0x00
   01A8 02                  230 	.db	2
   01A9 01 02               231 	.db	0x01, 0x02
   01AB F6 00               232 	.db	-10,0x00
   01AD 02                  233 	.db	2
   01AE 02 01               234 	.db	0x02, 0x01
   01B0 FA 00               235 	.db	-6,0x00
   01B2 02                  236 	.db	2
   01B3 01 02               237 	.db	0x01, 0x02
   01B5 F6 00               238 	.db	-10,0x00
   01B7 02                  239 	.db	2
   01B8 02 01               240 	.db	0x02, 0x01
   01BA FA 00               241 	.db	-6,0x00
   01BC 02                  242 	.db	2
   01BD 01 02               243 	.db	0x01, 0x02
   01BF F6 00               244 	.db	-10,0x00
   01C1 02                  245 	.db	2
   01C2 02 01               246 	.db	0x02, 0x01
   01C4 FA 00               247 	.db	-6,0x00
   01C6 02                  248 	.db	2
   01C7 01 02               249 	.db	0x01, 0x02
   01C9 F6 00               250 	.db	-10,0x00
   01CB 02                  251 	.db	2
   01CC 02 01               252 	.db	0x02, 0x01
   01CE FA 00               253 	.db	-6,0x00
   01D0 01                  254 	.db	1
   01D1 01                  255 	.db	0x01
   01D2 F4 02               256 	.db	-12,0x02
   01D4 01                  257 	.db	1
   01D5 01                  258 	.db	0x01
   01D6 F9 00               259 	.db	-7,0x00
   01D8 F4 01               260 	.db	-12,0x01
   01DA D4 00               261 	.db	-44,0x00
   01DC 00                  262 	.db	0
                            263 ;	main.c 10
                            264 ;	genAssign
                            265 ;	AOP_HL for _SCREEN_L
   01DD 21 B8 02            266 	ld	hl,#_SCREEN_L
   01E0 36 28               267 	ld	(hl),#0x28
                            268 ;	main.c 11
                            269 ;	genAssign
                            270 ;	AOP_HL for _SCREEN_WIDTH
   01E2 21 B9 02            271 	ld	hl,#_SCREEN_WIDTH
   01E5 36 50               272 	ld	(hl),#0x50
                            273 ;	main.c 12
                            274 ;	genAssign
                            275 ;	AOP_HL for _SCREEN_T
   01E7 21 BA 02            276 	ld	hl,#_SCREEN_T
   01EA 36 28               277 	ld	(hl),#0x28
                            278 ;	main.c 13
                            279 ;	genAssign
                            280 ;	AOP_HL for _SCREEN_HEIGHT
   01EC 21 BB 02            281 	ld	hl,#_SCREEN_HEIGHT
   01EF 36 50               282 	ld	(hl),#0x50
                            283 ;	main.c 24
                            284 ;	genAssign
                            285 ;	AOP_HL for _SNAKE_MEMIND
   01F1 21 BC 02            286 	ld	hl,#_SNAKE_MEMIND
   01F4 36 00               287 	ld	(hl),#0x00
                            288 ;	main.c 25
                            289 ;	genAssign
                            290 ;	AOP_HL for _SNAKE_NTILES
   01F6 21 BD 02            291 	ld	hl,#_SNAKE_NTILES
   01F9 36 05               292 	ld	(hl),#0x05
                            293 ;	main.c 27
                            294 ;	genAssign
                            295 ;	AOP_HL for _SNAKE_MEMIND
                            296 ;	AOP_HL for _SNAKE_HEAD_UP
   01FB 21 BC 02            297 	ld	hl,#_SNAKE_MEMIND
   01FE 7E                  298 	ld	a,(hl)
   01FF 21 BE 02            299 	ld	hl,#_SNAKE_HEAD_UP
   0202 77                  300 	ld	(hl),a
                            301 ;	main.c 28
                            302 ;	genPlus
                            303 ;	AOP_HL for _SNAKE_MEMIND
                            304 ;	AOP_HL for _SNAKE_HEAD_L
                            305 ;	genPlusIncr
                            306 ;	Can't optimise plus by inc, falling back to the normal way
   0203 21 BC 02            307 	ld	hl,#_SNAKE_MEMIND
   0206 7E                  308 	ld	a,(hl)
   0207 C6 01               309 	add	a,#0x01
   0209 21 BF 02            310 	ld	hl,#_SNAKE_HEAD_L
   020C 77                  311 	ld	(hl),a
                            312 ;	main.c 29
                            313 ;	genPlus
                            314 ;	AOP_HL for _SNAKE_MEMIND
                            315 ;	AOP_HL for _SNAKE_DEAD_HEAD_UP
                            316 ;	genPlusIncr
                            317 ;	Can't optimise plus by inc, falling back to the normal way
   020D 21 BC 02            318 	ld	hl,#_SNAKE_MEMIND
   0210 7E                  319 	ld	a,(hl)
   0211 C6 02               320 	add	a,#0x02
   0213 21 C0 02            321 	ld	hl,#_SNAKE_DEAD_HEAD_UP
   0216 77                  322 	ld	(hl),a
                            323 ;	main.c 30
                            324 ;	genPlus
                            325 ;	AOP_HL for _SNAKE_MEMIND
                            326 ;	AOP_HL for _SNAKE_DEAD_HEAD_L
                            327 ;	genPlusIncr
                            328 ;	Can't optimise plus by inc, falling back to the normal way
   0217 21 BC 02            329 	ld	hl,#_SNAKE_MEMIND
   021A 7E                  330 	ld	a,(hl)
   021B C6 03               331 	add	a,#0x03
   021D 21 C1 02            332 	ld	hl,#_SNAKE_DEAD_HEAD_L
   0220 77                  333 	ld	(hl),a
                            334 ;	main.c 31
                            335 ;	genPlus
                            336 ;	AOP_HL for _SNAKE_MEMIND
                            337 ;	AOP_HL for _SNAKE_BODY
                            338 ;	genPlusIncr
                            339 ;	Can't optimise plus by inc, falling back to the normal way
   0221 21 BC 02            340 	ld	hl,#_SNAKE_MEMIND
   0224 7E                  341 	ld	a,(hl)
   0225 C6 04               342 	add	a,#0x04
   0227 21 C2 02            343 	ld	hl,#_SNAKE_BODY
   022A 77                  344 	ld	(hl),a
                            345 ;	main.c 40
                            346 ;	genAssign
                            347 ;	AOP_HL for _FOOD_MEMIND
   022B 21 C3 02            348 	ld	hl,#_FOOD_MEMIND
   022E 36 05               349 	ld	(hl),#0x05
                            350 ;	main.c 41
                            351 ;	genAssign
                            352 ;	AOP_HL for _FOOD_NTILES
   0230 21 C4 02            353 	ld	hl,#_FOOD_NTILES
   0233 36 03               354 	ld	(hl),#0x03
                            355 ;	main.c 43
                            356 ;	genAssign
                            357 ;	AOP_HL for _FOOD_MEMIND
                            358 ;	AOP_HL for _FOOD_BISCUIT
   0235 21 C3 02            359 	ld	hl,#_FOOD_MEMIND
   0238 7E                  360 	ld	a,(hl)
   0239 21 C5 02            361 	ld	hl,#_FOOD_BISCUIT
   023C 77                  362 	ld	(hl),a
                            363 ;	main.c 44
                            364 ;	genPlus
                            365 ;	AOP_HL for _FOOD_MEMIND
                            366 ;	AOP_HL for _FOOD_CARROT
                            367 ;	genPlusIncr
                            368 ;	Can't optimise plus by inc, falling back to the normal way
   023D 21 C3 02            369 	ld	hl,#_FOOD_MEMIND
   0240 7E                  370 	ld	a,(hl)
   0241 C6 01               371 	add	a,#0x01
   0243 21 C6 02            372 	ld	hl,#_FOOD_CARROT
   0246 77                  373 	ld	(hl),a
                            374 ;	main.c 45
                            375 ;	genPlus
                            376 ;	AOP_HL for _FOOD_MEMIND
                            377 ;	AOP_HL for _FOOD_TURNIP
                            378 ;	genPlusIncr
                            379 ;	Can't optimise plus by inc, falling back to the normal way
   0247 21 C3 02            380 	ld	hl,#_FOOD_MEMIND
   024A 7E                  381 	ld	a,(hl)
   024B C6 02               382 	add	a,#0x02
   024D 21 C7 02            383 	ld	hl,#_FOOD_TURNIP
   0250 77                  384 	ld	(hl),a
                            385 ;--------------------------------------------------------
                            386 ; Home
                            387 ;--------------------------------------------------------
                            388 	.area _HOME
                            389 	.area _CODE
                            390 ;--------------------------------------------------------
                            391 ; code
                            392 ;--------------------------------------------------------
                            393 	.area _CODE
                            394 ;	main.c 47
                            395 ;	genLabel
                            396 ;	genFunction
                            397 ;	---------------------------------
                            398 ; Function wait
                            399 ; ---------------------------------
   0000                     400 ___wait_start:
   0000                     401 _wait:
                            402 	
                            403 ;	main.c 51
                            404 ;	genAssign
   0000 0E 00               405 	ld	c,#0x00
                            406 ;	genLabel
   0002                     407 00101$:
                            408 ;	genCmpLt
                            409 ;	AOP_STK for 
   0002 79                  410 	ld	a,c
   0003 F8 02               411 	lda	hl,2(sp)
   0005 96                  412 	sub	a,(hl)
   0006 D2 13 00            413 	jp	nc,00105$
                            414 ;	main.c 52
                            415 ;	genCall
                            416 ; _saveRegsForCall: sendSetSize: 0 deInUse: 0 bcInUse: 1 deSending: 0
   0009 C5                  417 	push	bc
   000A CD 00 00            418 	call	_wait_vbl_done
   000D E1                  419 	pop	hl
   000E 4D                  420 	ld	c,l
                            421 ;	main.c 51
                            422 ;	genPlus
                            423 ;	genPlusIncr
                            424 ; Removed redundent load
   000F 0C                  425 	inc	c
                            426 ;	genGoto
   0010 C3 02 00            427 	jp	00101$
                            428 ;	genLabel
   0013                     429 00105$:
                            430 ;	genEndFunction
                            431 	
   0013 C9                  432 	ret
   0014                     433 ___wait_end:
                            434 ;	main.c 56
                            435 ;	genLabel
                            436 ;	genFunction
                            437 ;	---------------------------------
                            438 ; Function game_over_screen
                            439 ; ---------------------------------
   0014                     440 ___game_over_screen_start:
   0014                     441 _game_over_screen:
   0014 E8 FD               442 	lda	sp,-3(sp)
                            443 ;	main.c 57
                            444 ;	genAssign
   0016 01 40 FF            445 	ld	bc,#0xFF40
                            446 ;	genAssign
                            447 ;	AOP_STK for _game_over_screen_sloc0_1_0
   0019 F8 01               448 	lda	hl,1(sp)
   001B 36 40               449 	ld	(hl),#0x40
   001D 23                  450 	inc	hl
   001E 36 FF               451 	ld	(hl),#0xFF
                            452 ;	genPointerGet
                            453 ;	AOP_STK for _game_over_screen_sloc0_1_0
                            454 ;	AOP_STK for _game_over_screen_sloc1_1_0
   0020 2B                  455 	dec	hl
   0021 5E                  456 	ld	e,(hl)
   0022 23                  457 	inc	hl
   0023 56                  458 	ld	d,(hl)
   0024 1A                  459 	ld	a,(de)
   0025 2B                  460 	dec	hl
   0026 2B                  461 	dec	hl
                            462 ;	genAnd
                            463 ;	AOP_STK for _game_over_screen_sloc1_1_0
   0027 77                  464 	ld      (hl),a
   0028 7F                  465 	ld      a,a
   0029 E6 FD               466 	and	a,#0xFD
                            467 ;	genAssign (pointer)
   002B 02                  468 	ld	(bc),a
                            469 ;	main.c 58
                            470 ;	genIpush
                            471 ; _saveRegsForCall: sendSetSize: 0 deInUse: 0 bcInUse: 0 deSending: 0
   002C 21 52 00            472 	ld	hl,#__str_0
   002F E5                  473 	push	hl
                            474 ;	genCall
   0030 CD 00 00            475 	call	_printf
   0033 E8 02               476 	lda	sp,2(sp)
                            477 ;	main.c 59
                            478 ;	genIpush
                            479 ; _saveRegsForCall: sendSetSize: 0 deInUse: 0 bcInUse: 0 deSending: 0
   0035 21 63 00            480 	ld	hl,#__str_1
   0038 E5                  481 	push	hl
                            482 ;	genCall
   0039 CD 00 00            483 	call	_printf
   003C E8 02               484 	lda	sp,2(sp)
                            485 ;	main.c 60
                            486 ;	genCast
                            487 ;	AOP_STK for 
   003E F8 05               488 	lda	hl,5(sp)
   0040 4E                  489 	ld	c,(hl)
   0041 7E                  490 	ld	a,(hl)
   0042 17                  491 	rla	
   0043 9F                  492 	sbc	a,a
   0044 47                  493 	ld	b,a
                            494 ;	genIpush
                            495 ; _saveRegsForCall: sendSetSize: 0 deInUse: 0 bcInUse: 0 deSending: 0
   0045 C5                  496 	push	bc
                            497 ;	genIpush
   0046 21 73 00            498 	ld	hl,#__str_2
   0049 E5                  499 	push	hl
                            500 ;	genCall
   004A CD 00 00            501 	call	_printf
   004D E8 04               502 	lda	sp,4(sp)
                            503 ;	genLabel
   004F                     504 00101$:
                            505 ;	genEndFunction
   004F E8 03               506 	lda	sp,3(sp)
   0051 C9                  507 	ret
   0052                     508 ___game_over_screen_end:
   0052                     509 __str_0:
   0052 0A                  510 	.db 0x0A
   0053 20                  511 	.ascii " "
   0054 0A                  512 	.db 0x0A
   0055 20                  513 	.ascii " "
   0056 0A                  514 	.db 0x0A
   0057 20                  515 	.ascii " "
   0058 0A                  516 	.db 0x0A
   0059 20                  517 	.ascii " "
   005A 0A                  518 	.db 0x0A
   005B 20                  519 	.ascii " "
   005C 0A                  520 	.db 0x0A
   005D 20                  521 	.ascii " "
   005E 0A                  522 	.db 0x0A
   005F 20                  523 	.ascii " "
   0060 0A                  524 	.db 0x0A
   0061 20                  525 	.ascii " "
   0062 00                  526 	.db 0x00
   0063                     527 __str_1:
   0063 20 20 20 20 47 41   528 	.ascii "    GAME OVER "
        4D 45 20 4F 56 45
        52 20
   0071 0A                  529 	.db 0x0A
   0072 00                  530 	.db 0x00
   0073                     531 __str_2:
   0073 20 20 20 20 20 53   532 	.ascii "     Score: %d"
        63 6F 72 65 3A 20
        25 64
   0081 00                  533 	.db 0x00
                            534 ;	main.c 64
                            535 ;	genLabel
                            536 ;	genFunction
                            537 ;	---------------------------------
                            538 ; Function sprite_collision
                            539 ; ---------------------------------
   0082                     540 ___sprite_collision_start:
   0082                     541 _sprite_collision:
   0082 E8 F4               542 	lda	sp,-12(sp)
                            543 ;	main.c 66
                            544 ;	genAssign
                            545 ;	AOP_STK for 
   0084 F8 0E               546 	lda	hl,14(sp)
   0086 4E                  547 	ld	c,(hl)
   0087 23                  548 	inc	hl
   0088 46                  549 	ld	b,(hl)
                            550 ;	genPlus
                            551 ;	AOP_STK for _sprite_collision_sloc0_1_0
                            552 ;	genPlusIncr
                            553 ;	Can't optimise plus by inc, falling back to the normal way
   0089 21 01 00            554 	ld	hl,#0x0001
   008C 09                  555 	add	hl,bc
   008D 7D                  556 	ld	a,l
   008E 54                  557 	ld	d,h
   008F F8 03               558 	lda	hl,3(sp)
                            559 ;	genPointerGet
                            560 ;	AOP_STK for _sprite_collision_sloc0_1_0
                            561 ;	AOP_STK for _sprite_collision_sloc1_1_0
   0091 22                  562 	ld	(hl+),a
   0092 72                  563 	ld	(hl),d
   0093 5F                  564 	ld	e,a
   0094 1A                  565 	ld	a,(de)
   0095 2B                  566 	dec	hl
   0096 2B                  567 	dec	hl
   0097 77                  568 	ld	(hl),a
                            569 ;	genPlus
                            570 ;	AOP_STK for _sprite_collision_sloc0_1_0
                            571 ;	genPlusIncr
                            572 ;	Can't optimise plus by inc, falling back to the normal way
   0098 21 03 00            573 	ld	hl,#0x0003
   009B 09                  574 	add	hl,bc
   009C 7D                  575 	ld	a,l
   009D 54                  576 	ld	d,h
   009E F8 03               577 	lda	hl,3(sp)
                            578 ;	genPointerGet
                            579 ;	AOP_STK for _sprite_collision_sloc0_1_0
                            580 ;	AOP_STK for _sprite_collision_sloc2_1_0
   00A0 22                  581 	ld	(hl+),a
   00A1 72                  582 	ld	(hl),d
   00A2 5F                  583 	ld	e,a
   00A3 1A                  584 	ld	a,(de)
   00A4 F8 01               585 	lda	hl,1(sp)
                            586 ;	genRightShift
                            587 ;	AOP_STK for _sprite_collision_sloc2_1_0
                            588 ;	AOP_STK for _sprite_collision_sloc0_1_0
   00A6 77                  589 	ld      (hl),a
   00A7 7F                  590 	ld      a,a
   00A8 CB 3F               591 	srl	a
   00AA 23                  592 	inc	hl
   00AB 23                  593 	inc	hl
                            594 ;	genPlus
                            595 ;	AOP_STK for _sprite_collision_sloc1_1_0
                            596 ;	AOP_STK for _sprite_collision_sloc0_1_0
                            597 ;	AOP_STK for _sprite_collision_sp1_left_1_1
                            598 ;	Can't optimise plus by inc, falling back to the normal way
   00AC 32                  599 	ld      (hl-),a
   00AD 2A                  600 	ld	a,(hl+)
   00AE 86                  601 	add	a,(hl)
   00AF F8 0B               602 	lda	hl,11(sp)
   00B1 77                  603 	ld	(hl),a
                            604 ;	genAssign
                            605 ;	AOP_STK for _sprite_collision_sp1_left_1_1
                            606 ;	(registers are the same)
                            607 ;	main.c 67
                            608 ;	genPlus
                            609 ;	AOP_STK for _sprite_collision_sloc1_1_0
                            610 ;	AOP_STK for _sprite_collision_sloc2_1_0
                            611 ;	AOP_STK for _sprite_collision_sloc3_1_0
                            612 ;	Can't optimise plus by inc, falling back to the normal way
   00B2 F8 02               613 	lda	hl,2(sp)
   00B4 7E                  614 	ld	a,(hl)
   00B5 2B                  615 	dec	hl
   00B6 86                  616 	add	a,(hl)
   00B7 2B                  617 	dec	hl
                            618 ;	genMinus
                            619 ;	AOP_STK for _sprite_collision_sloc3_1_0
                            620 ;	AOP_STK for _sprite_collision_sloc0_1_0
                            621 ;	AOP_STK for _sprite_collision_sp1_right_1_1
   00B8 77                  622 	ld      (hl),a
   00B9 7F                  623 	ld      a,a
   00BA F8 03               624 	lda	hl,3(sp)
   00BC 96                  625 	sub	a,(hl)
   00BD F8 0A               626 	lda	hl,10(sp)
   00BF 77                  627 	ld	(hl),a
                            628 ;	genAssign
                            629 ;	AOP_STK for _sprite_collision_sp1_right_1_1
                            630 ;	(registers are the same)
                            631 ;	main.c 68
                            632 ;	genPlus
                            633 ;	AOP_STK for _sprite_collision_sloc0_1_0
                            634 ;	genPlusIncr
                            635 ;	Can't optimise plus by inc, falling back to the normal way
   00C0 21 02 00            636 	ld	hl,#0x0002
   00C3 09                  637 	add	hl,bc
   00C4 7D                  638 	ld	a,l
   00C5 54                  639 	ld	d,h
   00C6 F8 03               640 	lda	hl,3(sp)
                            641 ;	genPointerGet
                            642 ;	AOP_STK for _sprite_collision_sloc0_1_0
                            643 ;	AOP_STK for _sprite_collision_sloc3_1_0
   00C8 22                  644 	ld	(hl+),a
   00C9 72                  645 	ld	(hl),d
   00CA 5F                  646 	ld	e,a
   00CB 1A                  647 	ld	a,(de)
   00CC F8 00               648 	lda	hl,0(sp)
   00CE 77                  649 	ld	(hl),a
                            650 ;	genPlus
                            651 ;	genPlusIncr
   00CF 03                  652 	inc	bc
   00D0 03                  653 	inc	bc
   00D1 03                  654 	inc	bc
   00D2 03                  655 	inc	bc
                            656 ;	genPointerGet
   00D3 0A                  657 	ld	a,(bc)
   00D4 4F                  658 	ld	c,a
                            659 ;	genRightShift
   00D5 41                  660 	ld	b,c
   00D6 CB 38               661 	srl	b
                            662 ;	genPlus
                            663 ;	AOP_STK for _sprite_collision_sloc3_1_0
                            664 ;	Can't optimise plus by inc, falling back to the normal way
   00D8 7E                  665 	ld	a,(hl)
   00D9 80                  666 	add	a,b
   00DA 47                  667 	ld	b,a
                            668 ;	genAssign
                            669 ;	AOP_STK for _sprite_collision_sp1_top_1_1
   00DB F8 09               670 	lda	hl,9(sp)
   00DD 70                  671 	ld	(hl),b
                            672 ;	main.c 69
                            673 ;	genPlus
                            674 ;	AOP_STK for _sprite_collision_sloc3_1_0
                            675 ;	Can't optimise plus by inc, falling back to the normal way
   00DE F8 00               676 	lda	hl,0(sp)
   00E0 7E                  677 	ld	a,(hl)
   00E1 81                  678 	add	a,c
   00E2 4F                  679 	ld	c,a
                            680 ;	genAssign
                            681 ;	AOP_STK for _sprite_collision_sp1_bottom_1_1
   00E3 F8 08               682 	lda	hl,8(sp)
   00E5 71                  683 	ld	(hl),c
                            684 ;	main.c 70
                            685 ;	genAssign
                            686 ;	AOP_STK for 
   00E6 F8 10               687 	lda	hl,16(sp)
   00E8 4E                  688 	ld	c,(hl)
   00E9 23                  689 	inc	hl
   00EA 46                  690 	ld	b,(hl)
                            691 ;	genPlus
                            692 ;	AOP_STK for _sprite_collision_sloc0_1_0
                            693 ;	genPlusIncr
                            694 ;	Can't optimise plus by inc, falling back to the normal way
   00EB 21 01 00            695 	ld	hl,#0x0001
   00EE 09                  696 	add	hl,bc
   00EF 7D                  697 	ld	a,l
   00F0 54                  698 	ld	d,h
   00F1 F8 03               699 	lda	hl,3(sp)
                            700 ;	genPointerGet
                            701 ;	AOP_STK for _sprite_collision_sloc0_1_0
                            702 ;	AOP_STK for _sprite_collision_sp2_left_1_1
   00F3 22                  703 	ld	(hl+),a
   00F4 72                  704 	ld	(hl),d
   00F5 5F                  705 	ld	e,a
   00F6 1A                  706 	ld	a,(de)
   00F7 F8 07               707 	lda	hl,7(sp)
   00F9 77                  708 	ld	(hl),a
                            709 ;	genAssign
                            710 ;	AOP_STK for _sprite_collision_sp2_left_1_1
                            711 ;	(registers are the same)
                            712 ;	main.c 71
                            713 ;	genPlus
                            714 ;	AOP_STK for _sprite_collision_sloc0_1_0
                            715 ;	genPlusIncr
                            716 ;	Can't optimise plus by inc, falling back to the normal way
   00FA 21 03 00            717 	ld	hl,#0x0003
   00FD 09                  718 	add	hl,bc
   00FE 7D                  719 	ld	a,l
   00FF 54                  720 	ld	d,h
   0100 F8 03               721 	lda	hl,3(sp)
                            722 ;	genPointerGet
                            723 ;	AOP_STK for _sprite_collision_sloc0_1_0
                            724 ;	AOP_STK for _sprite_collision_sloc3_1_0
   0102 22                  725 	ld	(hl+),a
   0103 72                  726 	ld	(hl),d
   0104 5F                  727 	ld	e,a
   0105 1A                  728 	ld	a,(de)
   0106 F8 00               729 	lda	hl,0(sp)
   0108 77                  730 	ld	(hl),a
                            731 ;	genPlus
                            732 ;	AOP_STK for _sprite_collision_sp2_left_1_1
                            733 ;	AOP_STK for _sprite_collision_sloc3_1_0
                            734 ;	AOP_STK for _sprite_collision_sp2_right_1_1
                            735 ;	Can't optimise plus by inc, falling back to the normal way
   0109 F8 07               736 	lda	hl,7(sp)
   010B 7E                  737 	ld	a,(hl)
   010C F8 00               738 	lda	hl,0(sp)
   010E 86                  739 	add	a,(hl)
   010F F8 06               740 	lda	hl,6(sp)
   0111 77                  741 	ld	(hl),a
                            742 ;	genAssign
                            743 ;	AOP_STK for _sprite_collision_sp2_right_1_1
                            744 ;	(registers are the same)
                            745 ;	main.c 72
                            746 ;	genPlus
                            747 ;	AOP_STK for _sprite_collision_sloc0_1_0
                            748 ;	genPlusIncr
                            749 ;	Can't optimise plus by inc, falling back to the normal way
   0112 21 02 00            750 	ld	hl,#0x0002
   0115 09                  751 	add	hl,bc
   0116 7D                  752 	ld	a,l
   0117 54                  753 	ld	d,h
   0118 F8 03               754 	lda	hl,3(sp)
                            755 ;	genPointerGet
                            756 ;	AOP_STK for _sprite_collision_sloc0_1_0
                            757 ;	AOP_STK for _sprite_collision_sp2_top_1_1
   011A 22                  758 	ld	(hl+),a
   011B 72                  759 	ld	(hl),d
   011C 5F                  760 	ld	e,a
   011D 1A                  761 	ld	a,(de)
   011E 23                  762 	inc	hl
   011F 77                  763 	ld	(hl),a
                            764 ;	genAssign
                            765 ;	AOP_STK for _sprite_collision_sp2_top_1_1
                            766 ;	(registers are the same)
                            767 ;	main.c 73
                            768 ;	genPlus
                            769 ;	genPlusIncr
   0120 03                  770 	inc	bc
   0121 03                  771 	inc	bc
   0122 03                  772 	inc	bc
   0123 03                  773 	inc	bc
                            774 ;	genPointerGet
   0124 0A                  775 	ld	a,(bc)
   0125 4F                  776 	ld	c,a
                            777 ;	genPlus
                            778 ;	AOP_STK for _sprite_collision_sp2_top_1_1
                            779 ;	Can't optimise plus by inc, falling back to the normal way
   0126 7E                  780 	ld	a,(hl)
   0127 81                  781 	add	a,c
   0128 4F                  782 	ld	c,a
                            783 ;	genAssign
                            784 ;	(registers are the same)
                            785 ;	main.c 75
                            786 ;	genCmpLt
                            787 ;	AOP_STK for _sprite_collision_sp1_left_1_1
                            788 ;	AOP_STK for _sprite_collision_sp2_left_1_1
   0129 F8 0B               789 	lda	hl,11(sp)
   012B 7E                  790 	ld	a,(hl)
   012C F8 07               791 	lda	hl,7(sp)
   012E 96                  792 	sub	a,(hl)
   012F 3E 00               793 	ld	a,#0x00
   0131 17                  794 	rla
   0132 47                  795 	ld	b,a
                            796 ;	genNot
   0133 AF                  797 	xor	a,a
   0134 B0                  798 	or	a,b
   0135 D6 01               799 	sub	a,#0x01
   0137 3E 00               800 	ld	a,#0x00
   0139 17                  801 	rla
   013A 47                  802 	ld	b,a
                            803 ;	genCmpGt
                            804 ;	AOP_STK for _sprite_collision_sp1_left_1_1
                            805 ;	AOP_STK for _sprite_collision_sp2_right_1_1
                            806 ;	AOP_STK for _sprite_collision_sloc3_1_0
   013B 2B                  807 	dec	hl
   013C 7E                  808 	ld	a,(hl)
   013D F8 0B               809 	lda	hl,11(sp)
   013F 96                  810 	sub	a,(hl)
   0140 3E 00               811 	ld	a,#0x00
   0142 17                  812 	rla
   0143 F8 00               813 	lda	hl,0(sp)
   0145 77                  814 	ld	(hl),a
                            815 ;	genNot
                            816 ;	AOP_STK for _sprite_collision_sloc3_1_0
                            817 ;	AOP_STK for _sprite_collision_sloc2_1_0
   0146 AF                  818 	xor	a,a
   0147 B6                  819 	or	a,(hl)
   0148 D6 01               820 	sub	a,#0x01
   014A 3E 00               821 	ld	a,#0x00
   014C 17                  822 	rla
   014D 23                  823 	inc	hl
   014E 77                  824 	ld	(hl),a
                            825 ;	genAndOp
                            826 ;	AOP_STK for _sprite_collision_sloc2_1_0
   014F AF                  827 	xor	a,a
   0150 B0                  828 	or	a,b
   0151 28 02               829 	jr	z,00103$
   0153 AF                  830 	xor	a,a
   0154 B6                  831 	or	a,(hl)
   0155                     832 00103$:
   0155 28 02               833 	jr	z,00104$
   0157 3E 01               834 	ld	a,#0x01
   0159                     835 00104$:
   0159 47                  836 	ld	b,a
                            837 ;	genCmpLt
                            838 ;	AOP_STK for _sprite_collision_sp1_top_1_1
                            839 ;	AOP_STK for _sprite_collision_sp2_top_1_1
                            840 ;	AOP_STK for _sprite_collision_sloc3_1_0
   015A F8 09               841 	lda	hl,9(sp)
   015C 7E                  842 	ld	a,(hl)
   015D F8 05               843 	lda	hl,5(sp)
   015F 96                  844 	sub	a,(hl)
   0160 3E 00               845 	ld	a,#0x00
   0162 17                  846 	rla
   0163 F8 00               847 	lda	hl,0(sp)
   0165 77                  848 	ld	(hl),a
                            849 ;	genNot
                            850 ;	AOP_STK for _sprite_collision_sloc3_1_0
                            851 ;	AOP_STK for _sprite_collision_sloc2_1_0
   0166 AF                  852 	xor	a,a
   0167 B6                  853 	or	a,(hl)
   0168 D6 01               854 	sub	a,#0x01
   016A 3E 00               855 	ld	a,#0x00
   016C 17                  856 	rla
   016D 23                  857 	inc	hl
   016E 77                  858 	ld	(hl),a
                            859 ;	genCmpGt
                            860 ;	AOP_STK for _sprite_collision_sp1_top_1_1
   016F 79                  861 	ld	a,c
   0170 F8 09               862 	lda	hl,9(sp)
   0172 96                  863 	sub	a,(hl)
   0173 3E 00               864 	ld	a,#0x00
   0175 17                  865 	rla
   0176 4F                  866 	ld	c,a
                            867 ;	genNot
   0177 AF                  868 	xor	a,a
   0178 B1                  869 	or	a,c
   0179 D6 01               870 	sub	a,#0x01
   017B 3E 00               871 	ld	a,#0x00
   017D 17                  872 	rla
   017E 4F                  873 	ld	c,a
                            874 ;	genAndOp
                            875 ;	AOP_STK for _sprite_collision_sloc2_1_0
   017F AF                  876 	xor	a,a
   0180 F8 01               877 	lda	hl,1(sp)
   0182 B6                  878 	or	a,(hl)
   0183 28 02               879 	jr	z,00105$
   0185 AF                  880 	xor	a,a
   0186 B1                  881 	or	a,c
   0187                     882 00105$:
   0187 28 02               883 	jr	z,00106$
   0189 3E 01               884 	ld	a,#0x01
   018B                     885 00106$:
   018B 4F                  886 	ld	c,a
                            887 ;	genAndOp
   018C AF                  888 	xor	a,a
   018D B0                  889 	or	a,b
   018E 28 02               890 	jr	z,00107$
   0190 AF                  891 	xor	a,a
   0191 B1                  892 	or	a,c
   0192                     893 00107$:
   0192 28 02               894 	jr	z,00108$
   0194 3E 01               895 	ld	a,#0x01
   0196                     896 00108$:
   0196 47                  897 	ld	b,a
                            898 ;	genCmpLt
                            899 ;	AOP_STK for _sprite_collision_sp2_left_1_1
                            900 ;	AOP_STK for _sprite_collision_sp1_left_1_1
   0197 F8 07               901 	lda	hl,7(sp)
   0199 7E                  902 	ld	a,(hl)
   019A F8 0B               903 	lda	hl,11(sp)
   019C 96                  904 	sub	a,(hl)
   019D 3E 00               905 	ld	a,#0x00
   019F 17                  906 	rla
   01A0 4F                  907 	ld	c,a
                            908 ;	genNot
   01A1 AF                  909 	xor	a,a
   01A2 B1                  910 	or	a,c
   01A3 D6 01               911 	sub	a,#0x01
   01A5 3E 00               912 	ld	a,#0x00
   01A7 17                  913 	rla
   01A8 4F                  914 	ld	c,a
                            915 ;	genCmpGt
                            916 ;	AOP_STK for _sprite_collision_sp2_left_1_1
                            917 ;	AOP_STK for _sprite_collision_sp1_right_1_1
                            918 ;	AOP_STK for _sprite_collision_sloc3_1_0
   01A9 2B                  919 	dec	hl
   01AA 7E                  920 	ld	a,(hl)
   01AB F8 07               921 	lda	hl,7(sp)
   01AD 96                  922 	sub	a,(hl)
   01AE 3E 00               923 	ld	a,#0x00
   01B0 17                  924 	rla
   01B1 F8 00               925 	lda	hl,0(sp)
   01B3 77                  926 	ld	(hl),a
                            927 ;	genNot
                            928 ;	AOP_STK for _sprite_collision_sloc3_1_0
                            929 ;	AOP_STK for _sprite_collision_sloc2_1_0
   01B4 AF                  930 	xor	a,a
   01B5 B6                  931 	or	a,(hl)
   01B6 D6 01               932 	sub	a,#0x01
   01B8 3E 00               933 	ld	a,#0x00
   01BA 17                  934 	rla
   01BB 23                  935 	inc	hl
   01BC 77                  936 	ld	(hl),a
                            937 ;	genAndOp
                            938 ;	AOP_STK for _sprite_collision_sloc2_1_0
   01BD AF                  939 	xor	a,a
   01BE B1                  940 	or	a,c
   01BF 28 02               941 	jr	z,00109$
   01C1 AF                  942 	xor	a,a
   01C2 B6                  943 	or	a,(hl)
   01C3                     944 00109$:
   01C3 28 02               945 	jr	z,00110$
   01C5 3E 01               946 	ld	a,#0x01
   01C7                     947 00110$:
   01C7 4F                  948 	ld	c,a
                            949 ;	genCmpLt
                            950 ;	AOP_STK for _sprite_collision_sp2_top_1_1
                            951 ;	AOP_STK for _sprite_collision_sp1_top_1_1
                            952 ;	AOP_STK for _sprite_collision_sloc3_1_0
   01C8 F8 05               953 	lda	hl,5(sp)
   01CA 7E                  954 	ld	a,(hl)
   01CB F8 09               955 	lda	hl,9(sp)
   01CD 96                  956 	sub	a,(hl)
   01CE 3E 00               957 	ld	a,#0x00
   01D0 17                  958 	rla
   01D1 F8 00               959 	lda	hl,0(sp)
   01D3 77                  960 	ld	(hl),a
                            961 ;	genNot
                            962 ;	AOP_STK for _sprite_collision_sloc3_1_0
                            963 ;	AOP_STK for _sprite_collision_sloc2_1_0
   01D4 AF                  964 	xor	a,a
   01D5 B6                  965 	or	a,(hl)
   01D6 D6 01               966 	sub	a,#0x01
   01D8 3E 00               967 	ld	a,#0x00
   01DA 17                  968 	rla
   01DB 23                  969 	inc	hl
   01DC 77                  970 	ld	(hl),a
                            971 ;	genCmpGt
                            972 ;	AOP_STK for _sprite_collision_sp2_top_1_1
                            973 ;	AOP_STK for _sprite_collision_sp1_bottom_1_1
                            974 ;	AOP_STK for _sprite_collision_sloc3_1_0
   01DD F8 08               975 	lda	hl,8(sp)
   01DF 7E                  976 	ld	a,(hl)
   01E0 F8 05               977 	lda	hl,5(sp)
   01E2 96                  978 	sub	a,(hl)
   01E3 3E 00               979 	ld	a,#0x00
   01E5 17                  980 	rla
   01E6 F8 00               981 	lda	hl,0(sp)
   01E8 77                  982 	ld	(hl),a
                            983 ;	genNot
                            984 ;	AOP_STK for _sprite_collision_sloc3_1_0
                            985 ;	AOP_STK for _sprite_collision_sloc1_1_0
   01E9 AF                  986 	xor	a,a
   01EA B6                  987 	or	a,(hl)
   01EB D6 01               988 	sub	a,#0x01
   01ED 3E 00               989 	ld	a,#0x00
   01EF 17                  990 	rla
   01F0 23                  991 	inc	hl
   01F1 23                  992 	inc	hl
   01F2 77                  993 	ld	(hl),a
                            994 ;	genAndOp
                            995 ;	AOP_STK for _sprite_collision_sloc2_1_0
                            996 ;	AOP_STK for _sprite_collision_sloc1_1_0
                            997 ;	AOP_STK for _sprite_collision_sloc3_1_0
   01F3 AF                  998 	xor	a,a
   01F4 2B                  999 	dec	hl
   01F5 B6                 1000 	or	a,(hl)
   01F6 28 03              1001 	jr	z,00111$
   01F8 AF                 1002 	xor	a,a
   01F9 23                 1003 	inc	hl
   01FA B6                 1004 	or	a,(hl)
   01FB                    1005 00111$:
   01FB 28 02              1006 	jr	z,00112$
   01FD 3E 01              1007 	ld	a,#0x01
   01FF                    1008 00112$:
   01FF F8 00              1009 	lda	hl,0(sp)
   0201 77                 1010 	ld	(hl),a
                           1011 ;	genAndOp
                           1012 ;	AOP_STK for _sprite_collision_sloc3_1_0
   0202 AF                 1013 	xor	a,a
   0203 B1                 1014 	or	a,c
   0204 28 02              1015 	jr	z,00113$
   0206 AF                 1016 	xor	a,a
   0207 B6                 1017 	or	a,(hl)
   0208                    1018 00113$:
   0208 28 02              1019 	jr	z,00114$
   020A 3E 01              1020 	ld	a,#0x01
   020C                    1021 00114$:
   020C 4F                 1022 	ld	c,a
                           1023 ;	genOrOp
   020D AF                 1024 	xor	a,a
   020E B0                 1025 	or	a,b
   020F 20 02              1026 	jr	nz,00115$
   0211 AF                 1027 	xor	a,a
   0212 B1                 1028 	or	a,c
   0213                    1029 00115$:
   0213 28 02              1030 	jr	z,00116$
   0215 3E 01              1031 	ld	a,#0x01
   0217                    1032 00116$:
   0217 47                 1033 	ld	b,a
                           1034 ;	genRet
   0218 58                 1035 	ld	e,b
                           1036 ;	genLabel
   0219                    1037 00101$:
                           1038 ;	genEndFunction
   0219 E8 0C              1039 	lda	sp,12(sp)
   021B C9                 1040 	ret
   021C                    1041 ___sprite_collision_end:
                           1042 ;	main.c 78
                           1043 ;	genLabel
                           1044 ;	genFunction
                           1045 ;	---------------------------------
                           1046 ; Function head_tail_collision
                           1047 ; ---------------------------------
   021C                    1048 ___head_tail_collision_start:
   021C                    1049 _head_tail_collision:
   021C E8 F8              1050 	lda	sp,-8(sp)
                           1051 ;	main.c 79
                           1052 ;	genAssign
                           1053 ;	AOP_STK for 
                           1054 ;	AOP_STK for _head_tail_collision_sloc2_1_0
   021E F8 0A              1055 	lda	hl,10(sp)
   0220 2A                 1056 	ld	a,(hl+)
   0221 5E                 1057 	ld	e,(hl)
   0222 F8 00              1058 	lda	hl,0(sp)
   0224 22                 1059 	ld	(hl+),a
   0225 73                 1060 	ld	(hl),e
                           1061 ;	genPlus
                           1062 ;	AOP_STK for _head_tail_collision_sloc2_1_0
                           1063 ;	AOP_STK for _head_tail_collision_sloc0_1_0
                           1064 ;	genPlusIncr
                           1065 ;	Can't optimise plus by inc, falling back to the normal way
   0226 2B                 1066 	dec	hl
   0227 5E                 1067 	ld	e,(hl)
   0228 23                 1068 	inc	hl
   0229 56                 1069 	ld	d,(hl)
   022A 21 05 00           1070 	ld	hl,#0x0005
   022D 19                 1071 	add	hl,de
   022E 7D                 1072 	ld	a,l
   022F 54                 1073 	ld	d,h
   0230 F8 04              1074 	lda	hl,4(sp)
                           1075 ;	genPointerGet
                           1076 ;	AOP_STK for _head_tail_collision_sloc0_1_0
                           1077 ;	AOP_STK for _head_tail_collision_sloc1_1_0
   0232 22                 1078 	ld	(hl+),a
   0233 72                 1079 	ld	(hl),d
   0234 5F                 1080 	ld	e,a
   0235 1A                 1081 	ld	a,(de)
   0236 F8 02              1082 	lda	hl,2(sp)
   0238 77                 1083 	ld	(hl),a
   0239 13                 1084 	inc	de
   023A 1A                 1085 	ld	a,(de)
   023B 23                 1086 	inc	hl
                           1087 ;	genAssign
                           1088 ;	AOP_STK for _head_tail_collision_sloc1_1_0
                           1089 ;	AOP_STK for _head_tail_collision_tail_1_1
   023C 32                 1090 	ld      (hl-),a
   023D 2A                 1091 	ld	a,(hl+)
   023E 5E                 1092 	ld	e,(hl)
   023F F8 06              1093 	lda	hl,6(sp)
   0241 22                 1094 	ld	(hl+),a
   0242 73                 1095 	ld	(hl),e
                           1096 ;	main.c 81
                           1097 ;	genLabel
   0243                    1098 00103$:
                           1099 ;	genCmpEq
                           1100 ;	AOP_STK for _head_tail_collision_tail_1_1
                           1101 ; genCmpEq: left 2, right 2, result 0
   0243 F8 06              1102 	lda	hl,6(sp)
   0245 2A                 1103 	ld	a,(hl+)
   0246 B6                 1104 	or	a,(hl)
   0247 CA 80 02           1105 	jp	z,00105$
   024A                    1106 00111$:
                           1107 ;	main.c 82
                           1108 ;	genIpush
                           1109 ; _saveRegsForCall: sendSetSize: 0 deInUse: 0 bcInUse: 0 deSending: 0
                           1110 ;	AOP_STK for _head_tail_collision_tail_1_1
   024A F8 06              1111 	lda	hl,6(sp)
   024C 2A                 1112 	ld	a,(hl+)
   024D 66                 1113 	ld	h,(hl)
   024E 6F                 1114 	ld	l,a
   024F E5                 1115 	push	hl
                           1116 ;	genIpush
                           1117 ;	AOP_STK for _head_tail_collision_sloc2_1_0
   0250 F8 02              1118 	lda	hl,2(sp)
   0252 2A                 1119 	ld	a,(hl+)
   0253 66                 1120 	ld	h,(hl)
   0254 6F                 1121 	ld	l,a
   0255 E5                 1122 	push	hl
                           1123 ;	genCall
   0256 CD 82 00           1124 	call	_sprite_collision
   0259 4B                 1125 	ld	c,e
   025A E8 04              1126 	lda	sp,4(sp)
                           1127 ;	genIfx
   025C AF                 1128 	xor	a,a
   025D B1                 1129 	or	a,c
   025E CA 66 02           1130 	jp	z,00102$
                           1131 ;	main.c 83
                           1132 ;	genRet
   0261 1E 01              1133 	ld	e,#0x01
   0263 C3 82 02           1134 	jp	00106$
                           1135 ;	main.c 84
                           1136 ;	genLabel
   0266                    1137 00102$:
                           1138 ;	main.c 86
                           1139 ;	genPlus
                           1140 ;	AOP_STK for _head_tail_collision_tail_1_1
                           1141 ;	genPlusIncr
                           1142 ;	Can't optimise plus by inc, falling back to the normal way
   0266 F8 06              1143 	lda	hl,6(sp)
   0268 5E                 1144 	ld	e,(hl)
   0269 23                 1145 	inc	hl
   026A 56                 1146 	ld	d,(hl)
   026B 21 05 00           1147 	ld	hl,#0x0005
   026E 19                 1148 	add	hl,de
   026F 4D                 1149 	ld	c,l
   0270 44                 1150 	ld	b,h
                           1151 ;	genPointerGet
   0271 59                 1152 	ld	e,c
   0272 50                 1153 	ld	d,b
   0273 1A                 1154 	ld	a,(de)
   0274 4F                 1155 	ld	c,a
   0275 13                 1156 	inc	de
   0276 1A                 1157 	ld	a,(de)
   0277 47                 1158 	ld	b,a
                           1159 ;	genAssign
                           1160 ;	AOP_STK for _head_tail_collision_tail_1_1
   0278 F8 06              1161 	lda	hl,6(sp)
   027A 71                 1162 	ld	(hl),c
   027B 23                 1163 	inc	hl
   027C 70                 1164 	ld	(hl),b
                           1165 ;	genGoto
   027D C3 43 02           1166 	jp	00103$
                           1167 ;	genLabel
   0280                    1168 00105$:
                           1169 ;	main.c 88
                           1170 ;	genRet
   0280 1E 00              1171 	ld	e,#0x00
                           1172 ;	genLabel
   0282                    1173 00106$:
                           1174 ;	genEndFunction
   0282 E8 08              1175 	lda	sp,8(sp)
   0284 C9                 1176 	ret
   0285                    1177 ___head_tail_collision_end:
                           1178 ;	main.c 91
                           1179 ;	genLabel
                           1180 ;	genFunction
                           1181 ;	---------------------------------
                           1182 ; Function background_collision
                           1183 ; ---------------------------------
   0285                    1184 ___background_collision_start:
   0285                    1185 _background_collision:
   0285 E8 F3              1186 	lda	sp,-13(sp)
                           1187 ;	main.c 94
                           1188 ;	genAssign
                           1189 ;	AOP_STK for 
                           1190 ;	AOP_STK for _background_collision_sloc3_1_0
   0287 F8 0F              1191 	lda	hl,15(sp)
   0289 2A                 1192 	ld	a,(hl+)
   028A 5E                 1193 	ld	e,(hl)
   028B F8 00              1194 	lda	hl,0(sp)
   028D 22                 1195 	ld	(hl+),a
   028E 73                 1196 	ld	(hl),e
                           1197 ;	genPlus
                           1198 ;	AOP_STK for _background_collision_sloc3_1_0
                           1199 ;	AOP_STK for _background_collision_sloc0_1_0
                           1200 ;	genPlusIncr
                           1201 ;	Can't optimise plus by inc, falling back to the normal way
   028F 2B                 1202 	dec	hl
   0290 5E                 1203 	ld	e,(hl)
   0291 23                 1204 	inc	hl
   0292 56                 1205 	ld	d,(hl)
   0293 21 01 00           1206 	ld	hl,#0x0001
   0296 19                 1207 	add	hl,de
   0297 7D                 1208 	ld	a,l
   0298 54                 1209 	ld	d,h
   0299 F8 04              1210 	lda	hl,4(sp)
                           1211 ;	genPointerGet
                           1212 ;	AOP_STK for _background_collision_sloc0_1_0
                           1213 ;	AOP_STK for _background_collision_sloc1_1_0
   029B 22                 1214 	ld	(hl+),a
   029C 72                 1215 	ld	(hl),d
   029D 5F                 1216 	ld	e,a
   029E 1A                 1217 	ld	a,(de)
   029F 2B                 1218 	dec	hl
   02A0 2B                 1219 	dec	hl
   02A1 77                 1220 	ld	(hl),a
                           1221 ;	genPlus
                           1222 ;	AOP_STK for _background_collision_sloc3_1_0
                           1223 ;	AOP_STK for _background_collision_sloc0_1_0
                           1224 ;	genPlusIncr
                           1225 ;	Can't optimise plus by inc, falling back to the normal way
   02A2 F8 00              1226 	lda	hl,0(sp)
   02A4 5E                 1227 	ld	e,(hl)
   02A5 23                 1228 	inc	hl
   02A6 56                 1229 	ld	d,(hl)
   02A7 21 03 00           1230 	ld	hl,#0x0003
   02AA 19                 1231 	add	hl,de
   02AB 7D                 1232 	ld	a,l
   02AC 54                 1233 	ld	d,h
   02AD F8 04              1234 	lda	hl,4(sp)
                           1235 ;	genPointerGet
                           1236 ;	AOP_STK for _background_collision_sloc0_1_0
                           1237 ;	AOP_STK for _background_collision_sloc2_1_0
   02AF 22                 1238 	ld	(hl+),a
   02B0 72                 1239 	ld	(hl),d
   02B1 5F                 1240 	ld	e,a
   02B2 1A                 1241 	ld	a,(de)
   02B3 F8 02              1242 	lda	hl,2(sp)
                           1243 ;	genRightShift
                           1244 ;	AOP_STK for _background_collision_sloc2_1_0
                           1245 ;	AOP_STK for _background_collision_sloc0_1_0
   02B5 77                 1246 	ld      (hl),a
                           1247 ; Removed redundent load
   02B6 CB 3F              1248 	srl	a
   02B8 23                 1249 	inc	hl
   02B9 23                 1250 	inc	hl
                           1251 ;	genPlus
                           1252 ;	AOP_STK for _background_collision_sloc1_1_0
                           1253 ;	AOP_STK for _background_collision_sloc0_1_0
                           1254 ;	AOP_STK for _background_collision_sp1_left_1_1
                           1255 ;	Can't optimise plus by inc, falling back to the normal way
   02BA 32                 1256 	ld      (hl-),a
   02BB 2A                 1257 	ld	a,(hl+)
   02BC 86                 1258 	add	a,(hl)
   02BD F8 0C              1259 	lda	hl,12(sp)
   02BF 77                 1260 	ld	(hl),a
                           1261 ;	genAssign
                           1262 ;	AOP_STK for _background_collision_sp1_left_1_1
                           1263 ;	(registers are the same)
                           1264 ;	main.c 95
                           1265 ;	genPlus
                           1266 ;	AOP_STK for _background_collision_sloc1_1_0
                           1267 ;	AOP_STK for _background_collision_sloc2_1_0
                           1268 ;	Can't optimise plus by inc, falling back to the normal way
   02C0 F8 03              1269 	lda	hl,3(sp)
   02C2 7E                 1270 	ld	a,(hl)
   02C3 2B                 1271 	dec	hl
   02C4 86                 1272 	add	a,(hl)
                           1273 ;	genMinus
                           1274 ;	AOP_STK for _background_collision_sloc0_1_0
   02C5 47                 1275 	ld	b,a
   02C6 23                 1276 	inc	hl
   02C7 23                 1277 	inc	hl
   02C8 96                 1278 	sub	a,(hl)
   02C9 47                 1279 	ld	b,a
                           1280 ;	genAssign
                           1281 ;	AOP_STK for _background_collision_sp1_right_1_1
   02CA F8 0B              1282 	lda	hl,11(sp)
   02CC 70                 1283 	ld	(hl),b
                           1284 ;	main.c 96
                           1285 ;	genPlus
                           1286 ;	AOP_STK for _background_collision_sloc3_1_0
                           1287 ;	genPlusIncr
                           1288 ;	Can't optimise plus by inc, falling back to the normal way
   02CD F8 00              1289 	lda	hl,0(sp)
   02CF 5E                 1290 	ld	e,(hl)
   02D0 23                 1291 	inc	hl
   02D1 56                 1292 	ld	d,(hl)
   02D2 21 02 00           1293 	ld	hl,#0x0002
   02D5 19                 1294 	add	hl,de
   02D6 45                 1295 	ld	b,l
   02D7 4C                 1296 	ld	c,h
                           1297 ;	genPointerGet
   02D8 58                 1298 	ld	e,b
   02D9 51                 1299 	ld	d,c
   02DA 1A                 1300 	ld	a,(de)
   02DB 47                 1301 	ld	b,a
                           1302 ;	genPlus
                           1303 ;	AOP_STK for _background_collision_sloc3_1_0
                           1304 ;	AOP_STK for _background_collision_sloc0_1_0
                           1305 ;	genPlusIncr
                           1306 ;	Can't optimise plus by inc, falling back to the normal way
   02DC F8 00              1307 	lda	hl,0(sp)
   02DE 5E                 1308 	ld	e,(hl)
   02DF 23                 1309 	inc	hl
   02E0 56                 1310 	ld	d,(hl)
   02E1 21 04 00           1311 	ld	hl,#0x0004
   02E4 19                 1312 	add	hl,de
   02E5 7D                 1313 	ld	a,l
   02E6 54                 1314 	ld	d,h
   02E7 F8 04              1315 	lda	hl,4(sp)
                           1316 ;	genPointerGet
                           1317 ;	AOP_STK for _background_collision_sloc0_1_0
                           1318 ;	AOP_STK for _background_collision_sloc2_1_0
   02E9 22                 1319 	ld	(hl+),a
   02EA 72                 1320 	ld	(hl),d
   02EB 5F                 1321 	ld	e,a
   02EC 1A                 1322 	ld	a,(de)
   02ED F8 02              1323 	lda	hl,2(sp)
                           1324 ;	genRightShift
                           1325 ;	AOP_STK for _background_collision_sloc2_1_0
                           1326 ;	AOP_STK for _background_collision_sloc3_1_0
   02EF 77                 1327 	ld      (hl),a
                           1328 ; Removed redundent load
   02F0 CB 3F              1329 	srl	a
   02F2 2B                 1330 	dec	hl
   02F3 2B                 1331 	dec	hl
   02F4 77                 1332 	ld	(hl),a
                           1333 ;	genPlus
                           1334 ;	AOP_STK for _background_collision_sloc3_1_0
                           1335 ;	AOP_STK for _background_collision_sp1_top_1_1
                           1336 ;	Can't optimise plus by inc, falling back to the normal way
   02F5 78                 1337 	ld	a,b
   02F6 86                 1338 	add	a,(hl)
   02F7 F8 0A              1339 	lda	hl,10(sp)
   02F9 77                 1340 	ld	(hl),a
                           1341 ;	genAssign
                           1342 ;	AOP_STK for _background_collision_sp1_top_1_1
                           1343 ;	(registers are the same)
                           1344 ;	main.c 97
                           1345 ;	genPlus
                           1346 ;	AOP_STK for _background_collision_sloc2_1_0
                           1347 ;	Can't optimise plus by inc, falling back to the normal way
   02FA 78                 1348 	ld	a,b
   02FB F8 02              1349 	lda	hl,2(sp)
   02FD 86                 1350 	add	a,(hl)
   02FE 47                 1351 	ld	b,a
                           1352 ;	genAssign
                           1353 ;	AOP_STK for _background_collision_sp1_bottom_1_1
   02FF F8 09              1354 	lda	hl,9(sp)
   0301 70                 1355 	ld	(hl),b
                           1356 ;	main.c 104
                           1357 ;	genLabel
   0302                    1358 00103$:
                           1359 ;	genAssign
                           1360 ;	AOP_STK for 
   0302 F8 11              1361 	lda	hl,17(sp)
   0304 46                 1362 	ld	b,(hl)
   0305 23                 1363 	inc	hl
   0306 4E                 1364 	ld	c,(hl)
                           1365 ;	genPlus
                           1366 ;	AOP_STK for _background_collision_sloc3_1_0
                           1367 ;	genPlusIncr
                           1368 ;	Can't optimise plus by inc, falling back to the normal way
   0307 58                 1369 	ld	e,b
   0308 51                 1370 	ld	d,c
   0309 21 04 00           1371 	ld	hl,#0x0004
   030C 19                 1372 	add	hl,de
   030D 7D                 1373 	ld	a,l
   030E 54                 1374 	ld	d,h
   030F F8 00              1375 	lda	hl,0(sp)
                           1376 ;	genPointerGet
                           1377 ;	AOP_STK for _background_collision_sloc3_1_0
                           1378 ;	AOP_STK for _background_collision_sloc0_1_0
   0311 22                 1379 	ld	(hl+),a
   0312 72                 1380 	ld	(hl),d
   0313 5F                 1381 	ld	e,a
   0314 1A                 1382 	ld	a,(de)
   0315 F8 04              1383 	lda	hl,4(sp)
   0317 77                 1384 	ld	(hl),a
   0318 13                 1385 	inc	de
   0319 1A                 1386 	ld	a,(de)
   031A 23                 1387 	inc	hl
                           1388 ;	genCmpEq
                           1389 ;	AOP_STK for _background_collision_sloc0_1_0
                           1390 ; genCmpEq: left 2, right 2, result 0
   031B 32                 1391 	ld      (hl-),a
   031C 2A                 1392 	ld	a,(hl+)
   031D B6                 1393 	or	a,(hl)
   031E CA 69 04           1394 	jp	z,00105$
   0321                    1395 00111$:
                           1396 ;	main.c 105
                           1397 ;	genPointerGet
                           1398 ;	AOP_STK for _background_collision_bkg_left_1_1
   0321 58                 1399 	ld	e,b
   0322 51                 1400 	ld	d,c
   0323 1A                 1401 	ld	a,(de)
   0324 F8 08              1402 	lda	hl,8(sp)
   0326 77                 1403 	ld	(hl),a
                           1404 ;	genAssign
                           1405 ;	AOP_STK for _background_collision_bkg_left_1_1
                           1406 ;	(registers are the same)
                           1407 ;	main.c 106
                           1408 ;	genPlus
                           1409 ;	AOP_STK for _background_collision_sloc3_1_0
                           1410 ;	genPlusIncr
                           1411 ;	Can't optimise plus by inc, falling back to the normal way
   0327 58                 1412 	ld	e,b
   0328 51                 1413 	ld	d,c
   0329 21 02 00           1414 	ld	hl,#0x0002
   032C 19                 1415 	add	hl,de
   032D 7D                 1416 	ld	a,l
   032E 54                 1417 	ld	d,h
   032F F8 00              1418 	lda	hl,0(sp)
                           1419 ;	genPointerGet
                           1420 ;	AOP_STK for _background_collision_sloc3_1_0
                           1421 ;	AOP_STK for _background_collision_sloc2_1_0
   0331 22                 1422 	ld	(hl+),a
   0332 72                 1423 	ld	(hl),d
   0333 5F                 1424 	ld	e,a
   0334 1A                 1425 	ld	a,(de)
   0335 23                 1426 	inc	hl
   0336 77                 1427 	ld	(hl),a
                           1428 ;	genPlus
                           1429 ;	AOP_STK for _background_collision_bkg_left_1_1
                           1430 ;	AOP_STK for _background_collision_sloc2_1_0
                           1431 ;	AOP_STK for _background_collision_bkg_right_1_1
                           1432 ;	Can't optimise plus by inc, falling back to the normal way
   0337 F8 08              1433 	lda	hl,8(sp)
   0339 7E                 1434 	ld	a,(hl)
   033A F8 02              1435 	lda	hl,2(sp)
   033C 86                 1436 	add	a,(hl)
   033D F8 07              1437 	lda	hl,7(sp)
   033F 77                 1438 	ld	(hl),a
                           1439 ;	genAssign
                           1440 ;	AOP_STK for _background_collision_bkg_right_1_1
                           1441 ;	(registers are the same)
                           1442 ;	main.c 107
                           1443 ;	genPlus
                           1444 ;	AOP_STK for _background_collision_sloc3_1_0
                           1445 ;	genPlusIncr
                           1446 ;	Can't optimise plus by inc, falling back to the normal way
   0340 58                 1447 	ld	e,b
   0341 51                 1448 	ld	d,c
   0342 21 01 00           1449 	ld	hl,#0x0001
   0345 19                 1450 	add	hl,de
   0346 7D                 1451 	ld	a,l
   0347 54                 1452 	ld	d,h
   0348 F8 00              1453 	lda	hl,0(sp)
                           1454 ;	genPointerGet
                           1455 ;	AOP_STK for _background_collision_sloc3_1_0
                           1456 ;	AOP_STK for _background_collision_bkg_top_1_1
   034A 22                 1457 	ld	(hl+),a
   034B 72                 1458 	ld	(hl),d
   034C 5F                 1459 	ld	e,a
   034D 1A                 1460 	ld	a,(de)
   034E F8 06              1461 	lda	hl,6(sp)
   0350 77                 1462 	ld	(hl),a
                           1463 ;	genAssign
                           1464 ;	AOP_STK for _background_collision_bkg_top_1_1
                           1465 ;	(registers are the same)
                           1466 ;	main.c 108
                           1467 ;	genPlus
                           1468 ;	genPlusIncr
                           1469 ;	Can't optimise plus by inc, falling back to the normal way
   0351 78                 1470 	ld	a,b
   0352 C6 03              1471 	add	a,#0x03
   0354 47                 1472 	ld	b,a
   0355 79                 1473 	ld	a,c
   0356 CE 00              1474 	adc	a,#0x00
   0358 4F                 1475 	ld	c,a
                           1476 ;	genPointerGet
   0359 58                 1477 	ld	e,b
   035A 51                 1478 	ld	d,c
   035B 1A                 1479 	ld	a,(de)
   035C 47                 1480 	ld	b,a
                           1481 ;	genPlus
                           1482 ;	AOP_STK for _background_collision_bkg_top_1_1
                           1483 ;	Can't optimise plus by inc, falling back to the normal way
   035D 7E                 1484 	ld	a,(hl)
   035E 80                 1485 	add	a,b
   035F 47                 1486 	ld	b,a
                           1487 ;	genAssign
                           1488 ;	(registers are the same)
                           1489 ;	main.c 109
                           1490 ;	genCmpLt
                           1491 ;	AOP_STK for _background_collision_sp1_left_1_1
                           1492 ;	AOP_STK for _background_collision_bkg_left_1_1
   0360 F8 0C              1493 	lda	hl,12(sp)
   0362 7E                 1494 	ld	a,(hl)
   0363 F8 08              1495 	lda	hl,8(sp)
   0365 96                 1496 	sub	a,(hl)
   0366 3E 00              1497 	ld	a,#0x00
   0368 17                 1498 	rla
   0369 4F                 1499 	ld	c,a
                           1500 ;	genNot
   036A AF                 1501 	xor	a,a
   036B B1                 1502 	or	a,c
   036C D6 01              1503 	sub	a,#0x01
   036E 3E 00              1504 	ld	a,#0x00
   0370 17                 1505 	rla
   0371 4F                 1506 	ld	c,a
                           1507 ;	genCmpGt
                           1508 ;	AOP_STK for _background_collision_sp1_left_1_1
                           1509 ;	AOP_STK for _background_collision_bkg_right_1_1
                           1510 ;	AOP_STK for _background_collision_sloc3_1_0
   0372 2B                 1511 	dec	hl
   0373 7E                 1512 	ld	a,(hl)
   0374 F8 0C              1513 	lda	hl,12(sp)
   0376 96                 1514 	sub	a,(hl)
   0377 3E 00              1515 	ld	a,#0x00
   0379 17                 1516 	rla
   037A F8 00              1517 	lda	hl,0(sp)
   037C 77                 1518 	ld	(hl),a
                           1519 ;	genNot
                           1520 ;	AOP_STK for _background_collision_sloc3_1_0
                           1521 ;	AOP_STK for _background_collision_sloc2_1_0
   037D AF                 1522 	xor	a,a
   037E B6                 1523 	or	a,(hl)
   037F D6 01              1524 	sub	a,#0x01
   0381 3E 00              1525 	ld	a,#0x00
   0383 17                 1526 	rla
   0384 23                 1527 	inc	hl
   0385 23                 1528 	inc	hl
   0386 77                 1529 	ld	(hl),a
                           1530 ;	genAndOp
                           1531 ;	AOP_STK for _background_collision_sloc2_1_0
   0387 AF                 1532 	xor	a,a
   0388 B1                 1533 	or	a,c
   0389 28 02              1534 	jr	z,00112$
   038B AF                 1535 	xor	a,a
   038C B6                 1536 	or	a,(hl)
   038D                    1537 00112$:
   038D 28 02              1538 	jr	z,00113$
   038F 3E 01              1539 	ld	a,#0x01
   0391                    1540 00113$:
   0391 4F                 1541 	ld	c,a
                           1542 ;	genCmpLt
                           1543 ;	AOP_STK for _background_collision_sp1_top_1_1
                           1544 ;	AOP_STK for _background_collision_bkg_top_1_1
                           1545 ;	AOP_STK for _background_collision_sloc3_1_0
   0392 F8 0A              1546 	lda	hl,10(sp)
   0394 7E                 1547 	ld	a,(hl)
   0395 F8 06              1548 	lda	hl,6(sp)
   0397 96                 1549 	sub	a,(hl)
   0398 3E 00              1550 	ld	a,#0x00
   039A 17                 1551 	rla
   039B F8 00              1552 	lda	hl,0(sp)
   039D 77                 1553 	ld	(hl),a
                           1554 ;	genNot
                           1555 ;	AOP_STK for _background_collision_sloc3_1_0
                           1556 ;	AOP_STK for _background_collision_sloc2_1_0
   039E AF                 1557 	xor	a,a
   039F B6                 1558 	or	a,(hl)
   03A0 D6 01              1559 	sub	a,#0x01
   03A2 3E 00              1560 	ld	a,#0x00
   03A4 17                 1561 	rla
   03A5 23                 1562 	inc	hl
   03A6 23                 1563 	inc	hl
   03A7 77                 1564 	ld	(hl),a
                           1565 ;	genCmpGt
                           1566 ;	AOP_STK for _background_collision_sp1_top_1_1
   03A8 78                 1567 	ld	a,b
   03A9 F8 0A              1568 	lda	hl,10(sp)
   03AB 96                 1569 	sub	a,(hl)
   03AC 3E 00              1570 	ld	a,#0x00
   03AE 17                 1571 	rla
   03AF 47                 1572 	ld	b,a
                           1573 ;	genNot
   03B0 AF                 1574 	xor	a,a
   03B1 B0                 1575 	or	a,b
   03B2 D6 01              1576 	sub	a,#0x01
   03B4 3E 00              1577 	ld	a,#0x00
   03B6 17                 1578 	rla
   03B7 47                 1579 	ld	b,a
                           1580 ;	genAndOp
                           1581 ;	AOP_STK for _background_collision_sloc2_1_0
   03B8 AF                 1582 	xor	a,a
   03B9 F8 02              1583 	lda	hl,2(sp)
   03BB B6                 1584 	or	a,(hl)
   03BC 28 02              1585 	jr	z,00114$
   03BE AF                 1586 	xor	a,a
   03BF B0                 1587 	or	a,b
   03C0                    1588 00114$:
   03C0 28 02              1589 	jr	z,00115$
   03C2 3E 01              1590 	ld	a,#0x01
   03C4                    1591 00115$:
   03C4 47                 1592 	ld	b,a
                           1593 ;	genAndOp
   03C5 AF                 1594 	xor	a,a
   03C6 B1                 1595 	or	a,c
   03C7 28 02              1596 	jr	z,00116$
   03C9 AF                 1597 	xor	a,a
   03CA B0                 1598 	or	a,b
   03CB                    1599 00116$:
   03CB 28 02              1600 	jr	z,00117$
   03CD 3E 01              1601 	ld	a,#0x01
   03CF                    1602 00117$:
   03CF 4F                 1603 	ld	c,a
                           1604 ;	genCmpLt
                           1605 ;	AOP_STK for _background_collision_bkg_left_1_1
                           1606 ;	AOP_STK for _background_collision_sp1_left_1_1
   03D0 F8 08              1607 	lda	hl,8(sp)
   03D2 7E                 1608 	ld	a,(hl)
   03D3 F8 0C              1609 	lda	hl,12(sp)
   03D5 96                 1610 	sub	a,(hl)
   03D6 3E 00              1611 	ld	a,#0x00
   03D8 17                 1612 	rla
   03D9 47                 1613 	ld	b,a
                           1614 ;	genNot
   03DA AF                 1615 	xor	a,a
   03DB B0                 1616 	or	a,b
   03DC D6 01              1617 	sub	a,#0x01
   03DE 3E 00              1618 	ld	a,#0x00
   03E0 17                 1619 	rla
   03E1 47                 1620 	ld	b,a
                           1621 ;	genCmpGt
                           1622 ;	AOP_STK for _background_collision_bkg_left_1_1
                           1623 ;	AOP_STK for _background_collision_sp1_right_1_1
                           1624 ;	AOP_STK for _background_collision_sloc3_1_0
   03E2 2B                 1625 	dec	hl
   03E3 7E                 1626 	ld	a,(hl)
   03E4 F8 08              1627 	lda	hl,8(sp)
   03E6 96                 1628 	sub	a,(hl)
   03E7 3E 00              1629 	ld	a,#0x00
   03E9 17                 1630 	rla
   03EA F8 00              1631 	lda	hl,0(sp)
   03EC 77                 1632 	ld	(hl),a
                           1633 ;	genNot
                           1634 ;	AOP_STK for _background_collision_sloc3_1_0
                           1635 ;	AOP_STK for _background_collision_sloc2_1_0
   03ED AF                 1636 	xor	a,a
   03EE B6                 1637 	or	a,(hl)
   03EF D6 01              1638 	sub	a,#0x01
   03F1 3E 00              1639 	ld	a,#0x00
   03F3 17                 1640 	rla
   03F4 23                 1641 	inc	hl
   03F5 23                 1642 	inc	hl
   03F6 77                 1643 	ld	(hl),a
                           1644 ;	genAndOp
                           1645 ;	AOP_STK for _background_collision_sloc2_1_0
   03F7 AF                 1646 	xor	a,a
   03F8 B0                 1647 	or	a,b
   03F9 28 02              1648 	jr	z,00118$
   03FB AF                 1649 	xor	a,a
   03FC B6                 1650 	or	a,(hl)
   03FD                    1651 00118$:
   03FD 28 02              1652 	jr	z,00119$
   03FF 3E 01              1653 	ld	a,#0x01
   0401                    1654 00119$:
   0401 47                 1655 	ld	b,a
                           1656 ;	genCmpLt
                           1657 ;	AOP_STK for _background_collision_bkg_top_1_1
                           1658 ;	AOP_STK for _background_collision_sp1_top_1_1
                           1659 ;	AOP_STK for _background_collision_sloc3_1_0
   0402 F8 06              1660 	lda	hl,6(sp)
   0404 7E                 1661 	ld	a,(hl)
   0405 F8 0A              1662 	lda	hl,10(sp)
   0407 96                 1663 	sub	a,(hl)
   0408 3E 00              1664 	ld	a,#0x00
   040A 17                 1665 	rla
   040B F8 00              1666 	lda	hl,0(sp)
   040D 77                 1667 	ld	(hl),a
                           1668 ;	genNot
                           1669 ;	AOP_STK for _background_collision_sloc3_1_0
                           1670 ;	AOP_STK for _background_collision_sloc2_1_0
   040E AF                 1671 	xor	a,a
   040F B6                 1672 	or	a,(hl)
   0410 D6 01              1673 	sub	a,#0x01
   0412 3E 00              1674 	ld	a,#0x00
   0414 17                 1675 	rla
   0415 23                 1676 	inc	hl
   0416 23                 1677 	inc	hl
   0417 77                 1678 	ld	(hl),a
                           1679 ;	genCmpGt
                           1680 ;	AOP_STK for _background_collision_bkg_top_1_1
                           1681 ;	AOP_STK for _background_collision_sp1_bottom_1_1
                           1682 ;	AOP_STK for _background_collision_sloc3_1_0
   0418 F8 09              1683 	lda	hl,9(sp)
   041A 7E                 1684 	ld	a,(hl)
   041B F8 06              1685 	lda	hl,6(sp)
   041D 96                 1686 	sub	a,(hl)
   041E 3E 00              1687 	ld	a,#0x00
   0420 17                 1688 	rla
   0421 F8 00              1689 	lda	hl,0(sp)
   0423 77                 1690 	ld	(hl),a
                           1691 ;	genNot
                           1692 ;	AOP_STK for _background_collision_sloc3_1_0
                           1693 ;	AOP_STK for _background_collision_sloc1_1_0
   0424 AF                 1694 	xor	a,a
   0425 B6                 1695 	or	a,(hl)
   0426 D6 01              1696 	sub	a,#0x01
   0428 3E 00              1697 	ld	a,#0x00
   042A 17                 1698 	rla
   042B F8 03              1699 	lda	hl,3(sp)
   042D 77                 1700 	ld	(hl),a
                           1701 ;	genAndOp
                           1702 ;	AOP_STK for _background_collision_sloc2_1_0
                           1703 ;	AOP_STK for _background_collision_sloc1_1_0
                           1704 ;	AOP_STK for _background_collision_sloc3_1_0
   042E AF                 1705 	xor	a,a
   042F 2B                 1706 	dec	hl
   0430 B6                 1707 	or	a,(hl)
   0431 28 03              1708 	jr	z,00120$
   0433 AF                 1709 	xor	a,a
   0434 23                 1710 	inc	hl
   0435 B6                 1711 	or	a,(hl)
   0436                    1712 00120$:
   0436 28 02              1713 	jr	z,00121$
   0438 3E 01              1714 	ld	a,#0x01
   043A                    1715 00121$:
   043A F8 00              1716 	lda	hl,0(sp)
   043C 77                 1717 	ld	(hl),a
                           1718 ;	genAndOp
                           1719 ;	AOP_STK for _background_collision_sloc3_1_0
   043D AF                 1720 	xor	a,a
   043E B0                 1721 	or	a,b
   043F 28 02              1722 	jr	z,00122$
   0441 AF                 1723 	xor	a,a
   0442 B6                 1724 	or	a,(hl)
   0443                    1725 00122$:
   0443 28 02              1726 	jr	z,00123$
   0445 3E 01              1727 	ld	a,#0x01
   0447                    1728 00123$:
   0447 47                 1729 	ld	b,a
                           1730 ;	genOrOp
   0448 AF                 1731 	xor	a,a
   0449 B1                 1732 	or	a,c
   044A 20 02              1733 	jr	nz,00124$
   044C AF                 1734 	xor	a,a
   044D B0                 1735 	or	a,b
   044E                    1736 00124$:
   044E 28 02              1737 	jr	z,00125$
   0450 3E 01              1738 	ld	a,#0x01
   0452                    1739 00125$:
                           1740 ;	genAssign
   0452 4F                 1741 	ld	c,a
                           1742 ;	main.c 110
                           1743 ;	genIfx
   0453 B7                 1744 	or	a,a
   0454 CA 5C 04           1745 	jp	z,00102$
                           1746 ;	main.c 111
                           1747 ;	genRet
   0457 1E 01              1748 	ld	e,#0x01
   0459 C3 6B 04           1749 	jp	00106$
                           1750 ;	genLabel
   045C                    1751 00102$:
                           1752 ;	main.c 113
                           1753 ;	genAssign
                           1754 ;	AOP_STK for _background_collision_sloc0_1_0
   045C F8 04              1755 	lda	hl,4(sp)
   045E 4E                 1756 	ld	c,(hl)
   045F 23                 1757 	inc	hl
   0460 46                 1758 	ld	b,(hl)
                           1759 ;	genAssign
                           1760 ;	AOP_STK for 
   0461 F8 11              1761 	lda	hl,17(sp)
   0463 71                 1762 	ld	(hl),c
   0464 23                 1763 	inc	hl
   0465 70                 1764 	ld	(hl),b
                           1765 ;	genGoto
   0466 C3 02 03           1766 	jp	00103$
                           1767 ;	genLabel
   0469                    1768 00105$:
                           1769 ;	main.c 116
                           1770 ;	genRet
   0469 1E 00              1771 	ld	e,#0x00
                           1772 ;	genLabel
   046B                    1773 00106$:
                           1774 ;	genEndFunction
   046B E8 0D              1775 	lda	sp,13(sp)
   046D C9                 1776 	ret
   046E                    1777 ___background_collision_end:
                           1778 ;	main.c 119
                           1779 ;	genLabel
                           1780 ;	genFunction
                           1781 ;	---------------------------------
                           1782 ; Function move_snake
                           1783 ; ---------------------------------
   046E                    1784 ___move_snake_start:
   046E                    1785 _move_snake:
   046E E8 E7              1786 	lda	sp,-25(sp)
                           1787 ;	main.c 128
                           1788 ;	genAssign
                           1789 ;	AOP_STK for 
   0470 F8 1B              1790 	lda	hl,27(sp)
   0472 4E                 1791 	ld	c,(hl)
   0473 23                 1792 	inc	hl
   0474 46                 1793 	ld	b,(hl)
                           1794 ;	genPlus
                           1795 ;	AOP_STK for _move_snake_sloc0_1_0
                           1796 ;	genPlusIncr
                           1797 ;	Can't optimise plus by inc, falling back to the normal way
   0475 21 01 00           1798 	ld	hl,#0x0001
   0478 09                 1799 	add	hl,bc
   0479 7D                 1800 	ld	a,l
   047A 54                 1801 	ld	d,h
   047B F8 0A              1802 	lda	hl,10(sp)
                           1803 ;	genPointerGet
                           1804 ;	AOP_STK for _move_snake_sloc0_1_0
                           1805 ;	AOP_STK for _move_snake_sloc1_1_0
   047D 22                 1806 	ld	(hl+),a
   047E 72                 1807 	ld	(hl),d
   047F 5F                 1808 	ld	e,a
   0480 1A                 1809 	ld	a,(de)
   0481 2B                 1810 	dec	hl
   0482 2B                 1811 	dec	hl
                           1812 ;	genAssign
                           1813 ;	AOP_STK for _move_snake_sloc1_1_0
                           1814 ;	AOP_STK for _move_snake_headx_1_1
   0483 77                 1815 	ld      (hl),a
                           1816 ; Removed redundent load
   0484 F8 0F              1817 	lda	hl,15(sp)
   0486 77                 1818 	ld	(hl),a
                           1819 ;	main.c 129
                           1820 ;	genPlus
                           1821 ;	AOP_STK for _move_snake_sloc2_1_0
                           1822 ;	genPlusIncr
                           1823 ;	Can't optimise plus by inc, falling back to the normal way
   0487 21 02 00           1824 	ld	hl,#0x0002
   048A 09                 1825 	add	hl,bc
   048B 7D                 1826 	ld	a,l
   048C 54                 1827 	ld	d,h
   048D F8 07              1828 	lda	hl,7(sp)
                           1829 ;	genPointerGet
                           1830 ;	AOP_STK for _move_snake_sloc2_1_0
                           1831 ;	AOP_STK for _move_snake_sloc3_1_0
   048F 22                 1832 	ld	(hl+),a
   0490 72                 1833 	ld	(hl),d
   0491 5F                 1834 	ld	e,a
   0492 1A                 1835 	ld	a,(de)
   0493 2B                 1836 	dec	hl
   0494 2B                 1837 	dec	hl
                           1838 ;	genAssign
                           1839 ;	AOP_STK for _move_snake_sloc3_1_0
                           1840 ;	AOP_STK for _move_snake_heady_1_1
   0495 77                 1841 	ld      (hl),a
                           1842 ; Removed redundent load
   0496 F8 0E              1843 	lda	hl,14(sp)
   0498 77                 1844 	ld	(hl),a
                           1845 ;	main.c 130
                           1846 ;	genPlus
                           1847 ;	AOP_STK for _move_snake_sloc1_1_0
                           1848 ;	AOP_STK for 
                           1849 ;	AOP_STK for _move_snake_newx_1_1
                           1850 ;	Can't optimise plus by inc, falling back to the normal way
   0499 F8 09              1851 	lda	hl,9(sp)
   049B 7E                 1852 	ld	a,(hl)
   049C F8 1D              1853 	lda	hl,29(sp)
   049E 86                 1854 	add	a,(hl)
   049F F8 0D              1855 	lda	hl,13(sp)
   04A1 77                 1856 	ld	(hl),a
                           1857 ;	genAssign
                           1858 ;	AOP_STK for _move_snake_newx_1_1
                           1859 ;	(registers are the same)
                           1860 ;	main.c 131
                           1861 ;	genPlus
                           1862 ;	AOP_STK for _move_snake_sloc3_1_0
                           1863 ;	AOP_STK for 
                           1864 ;	AOP_STK for _move_snake_newy_1_1
                           1865 ;	Can't optimise plus by inc, falling back to the normal way
   04A2 F8 06              1866 	lda	hl,6(sp)
   04A4 7E                 1867 	ld	a,(hl)
   04A5 F8 1E              1868 	lda	hl,30(sp)
   04A7 86                 1869 	add	a,(hl)
   04A8 F8 0C              1870 	lda	hl,12(sp)
   04AA 77                 1871 	ld	(hl),a
                           1872 ;	genAssign
                           1873 ;	AOP_STK for _move_snake_newy_1_1
                           1874 ;	(registers are the same)
                           1875 ;	main.c 134
                           1876 ;	genPlus
                           1877 ;	AOP_HL for _SCREEN_L
                           1878 ;	AOP_HL for _SCREEN_WIDTH
                           1879 ;	AOP_STK for _move_snake_sloc3_1_0
                           1880 ;	Can't optimise plus by inc, falling back to the normal way
   04AB 21 B8 02           1881 	ld	hl,#_SCREEN_L
   04AE 7E                 1882 	ld	a,(hl)
   04AF 21 B9 02           1883 	ld	hl,#_SCREEN_WIDTH
   04B2 86                 1884 	add	a,(hl)
   04B3 F8 06              1885 	lda	hl,6(sp)
   04B5 77                 1886 	ld	(hl),a
                           1887 ;	genCmpLt
                           1888 ;	AOP_STK for _move_snake_newx_1_1
                           1889 ;	AOP_STK for _move_snake_sloc3_1_0
   04B6 F8 0D              1890 	lda	hl,13(sp)
   04B8 7E                 1891 	ld	a,(hl)
   04B9 F8 06              1892 	lda	hl,6(sp)
   04BB 96                 1893 	sub	a,(hl)
   04BC DA C6 04           1894 	jp	c,00104$
                           1895 ;	main.c 135
                           1896 ;	genAssign
                           1897 ;	AOP_STK for _move_snake_sloc3_1_0
                           1898 ;	AOP_STK for _move_snake_newx_1_1
   04BF 7E                 1899 	ld	a,(hl)
   04C0 F8 0D              1900 	lda	hl,13(sp)
   04C2 77                 1901 	ld	(hl),a
                           1902 ;	genAssign
                           1903 ;	AOP_STK for _move_snake_newx_1_1
                           1904 ;	(registers are the same)
                           1905 ;	genGoto
   04C3 C3 E9 04           1906 	jp	00105$
                           1907 ;	genLabel
   04C6                    1908 00104$:
                           1909 ;	main.c 137
                           1910 ;	genCmpGt
                           1911 ;	AOP_STK for _move_snake_newx_1_1
                           1912 ;	AOP_HL for _SCREEN_L
   04C6 21 B8 02           1913 	ld	hl,#_SCREEN_L
   04C9 7E                 1914 	ld	a,(hl)
   04CA F8 0D              1915 	lda	hl,13(sp)
   04CC 96                 1916 	sub	a,(hl)
   04CD DA E9 04           1917 	jp	c,00105$
                           1918 ;	main.c 138
                           1919 ;	genPlus
                           1920 ;	AOP_STK for _move_snake_sloc4_1_0
                           1921 ;	genPlusIncr
                           1922 ;	Can't optimise plus by inc, falling back to the normal way
   04D0 21 03 00           1923 	ld	hl,#0x0003
   04D3 09                 1924 	add	hl,bc
   04D4 7D                 1925 	ld	a,l
   04D5 54                 1926 	ld	d,h
   04D6 F8 04              1927 	lda	hl,4(sp)
                           1928 ;	genPointerGet
                           1929 ;	AOP_STK for _move_snake_sloc4_1_0
                           1930 ;	AOP_STK for _move_snake_sloc1_1_0
   04D8 22                 1931 	ld	(hl+),a
   04D9 72                 1932 	ld	(hl),d
   04DA 5F                 1933 	ld	e,a
   04DB 1A                 1934 	ld	a,(de)
   04DC F8 09              1935 	lda	hl,9(sp)
   04DE 77                 1936 	ld	(hl),a
                           1937 ;	genPlus
                           1938 ;	AOP_HL for _SCREEN_L
                           1939 ;	AOP_STK for _move_snake_sloc1_1_0
                           1940 ;	AOP_STK for _move_snake_newx_1_1
                           1941 ;	Can't optimise plus by inc, falling back to the normal way
   04DF 21 B8 02           1942 	ld	hl,#_SCREEN_L
   04E2 7E                 1943 	ld	a,(hl)
   04E3 F8 09              1944 	lda	hl,9(sp)
   04E5 86                 1945 	add	a,(hl)
   04E6 F8 0D              1946 	lda	hl,13(sp)
   04E8 77                 1947 	ld	(hl),a
                           1948 ;	genAssign
                           1949 ;	AOP_STK for _move_snake_newx_1_1
                           1950 ;	(registers are the same)
                           1951 ;	genLabel
   04E9                    1952 00105$:
                           1953 ;	main.c 141
                           1954 ;	genPlus
                           1955 ;	AOP_HL for _SCREEN_T
                           1956 ;	AOP_HL for _SCREEN_HEIGHT
                           1957 ;	AOP_STK for _move_snake_sloc4_1_0
                           1958 ;	Can't optimise plus by inc, falling back to the normal way
   04E9 21 BA 02           1959 	ld	hl,#_SCREEN_T
   04EC 7E                 1960 	ld	a,(hl)
   04ED 21 BB 02           1961 	ld	hl,#_SCREEN_HEIGHT
   04F0 86                 1962 	add	a,(hl)
   04F1 F8 04              1963 	lda	hl,4(sp)
   04F3 77                 1964 	ld	(hl),a
                           1965 ;	genCmpLt
                           1966 ;	AOP_STK for _move_snake_newy_1_1
                           1967 ;	AOP_STK for _move_snake_sloc4_1_0
   04F4 F8 0C              1968 	lda	hl,12(sp)
   04F6 7E                 1969 	ld	a,(hl)
   04F7 F8 04              1970 	lda	hl,4(sp)
   04F9 96                 1971 	sub	a,(hl)
   04FA DA 04 05           1972 	jp	c,00109$
                           1973 ;	main.c 142
                           1974 ;	genAssign
                           1975 ;	AOP_STK for _move_snake_sloc4_1_0
                           1976 ;	AOP_STK for _move_snake_newy_1_1
   04FD 7E                 1977 	ld	a,(hl)
   04FE F8 0C              1978 	lda	hl,12(sp)
   0500 77                 1979 	ld	(hl),a
                           1980 ;	genAssign
                           1981 ;	AOP_STK for _move_snake_newy_1_1
                           1982 ;	(registers are the same)
                           1983 ;	genGoto
   0501 C3 27 05           1984 	jp	00110$
                           1985 ;	genLabel
   0504                    1986 00109$:
                           1987 ;	main.c 144
                           1988 ;	genCmpGt
                           1989 ;	AOP_STK for _move_snake_newy_1_1
                           1990 ;	AOP_HL for _SCREEN_T
   0504 21 BA 02           1991 	ld	hl,#_SCREEN_T
   0507 7E                 1992 	ld	a,(hl)
   0508 F8 0C              1993 	lda	hl,12(sp)
   050A 96                 1994 	sub	a,(hl)
   050B DA 27 05           1995 	jp	c,00110$
                           1996 ;	main.c 145
                           1997 ;	genPlus
                           1998 ;	AOP_STK for _move_snake_sloc4_1_0
                           1999 ;	genPlusIncr
                           2000 ;	Can't optimise plus by inc, falling back to the normal way
   050E 21 04 00           2001 	ld	hl,#0x0004
   0511 09                 2002 	add	hl,bc
   0512 7D                 2003 	ld	a,l
   0513 54                 2004 	ld	d,h
   0514 F8 04              2005 	lda	hl,4(sp)
                           2006 ;	genPointerGet
                           2007 ;	AOP_STK for _move_snake_sloc4_1_0
                           2008 ;	AOP_STK for _move_snake_sloc1_1_0
   0516 22                 2009 	ld	(hl+),a
   0517 72                 2010 	ld	(hl),d
   0518 5F                 2011 	ld	e,a
   0519 1A                 2012 	ld	a,(de)
   051A F8 09              2013 	lda	hl,9(sp)
   051C 77                 2014 	ld	(hl),a
                           2015 ;	genPlus
                           2016 ;	AOP_HL for _SCREEN_T
                           2017 ;	AOP_STK for _move_snake_sloc1_1_0
                           2018 ;	AOP_STK for _move_snake_newy_1_1
                           2019 ;	Can't optimise plus by inc, falling back to the normal way
   051D 21 BA 02           2020 	ld	hl,#_SCREEN_T
   0520 7E                 2021 	ld	a,(hl)
   0521 F8 09              2022 	lda	hl,9(sp)
   0523 86                 2023 	add	a,(hl)
   0524 F8 0C              2024 	lda	hl,12(sp)
   0526 77                 2025 	ld	(hl),a
                           2026 ;	genAssign
                           2027 ;	AOP_STK for _move_snake_newy_1_1
                           2028 ;	(registers are the same)
                           2029 ;	genLabel
   0527                    2030 00110$:
                           2031 ;	main.c 149
                           2032 ;	genAddrOf
                           2033 ;	AOP_STK for _move_snake_sloc4_1_0
   0527 F8 10              2034 	lda	hl,16(sp)
   0529 7D                 2035 	ld	a,l
   052A 54                 2036 	ld	d,h
   052B F8 04              2037 	lda	hl,4(sp)
   052D 22                 2038 	ld	(hl+),a
   052E 72                 2039 	ld	(hl),d
                           2040 ;	genPlus
                           2041 ;	AOP_STK for _move_snake_sloc4_1_0
                           2042 ;	genPlusIncr
   052F 2B                 2043 	dec	hl
   0530 2A                 2044 	ld	a,(hl+)
   0531 66                 2045 	ld	h,(hl)
   0532 6F                 2046 	ld	l,a
   0533 23                 2047 	inc	hl
                           2048 ;	genAssign (pointer)
                           2049 ;	AOP_STK for _move_snake_newx_1_1
   0534 F8 0D              2050 	lda	hl,13(sp)
   0536 7E                 2051 	ld	a,(hl)
   0537 77                 2052 	ld	(hl),a
                           2053 ;	main.c 150
                           2054 ;	genPlus
                           2055 ;	AOP_STK for _move_snake_sloc4_1_0
                           2056 ;	genPlusIncr
   0538 F8 04              2057 	lda	hl,4(sp)
   053A 2A                 2058 	ld	a,(hl+)
   053B 66                 2059 	ld	h,(hl)
   053C 6F                 2060 	ld	l,a
   053D 23                 2061 	inc	hl
   053E 23                 2062 	inc	hl
                           2063 ;	genAssign (pointer)
                           2064 ;	AOP_STK for _move_snake_newy_1_1
   053F F8 0C              2065 	lda	hl,12(sp)
   0541 7E                 2066 	ld	a,(hl)
   0542 77                 2067 	ld	(hl),a
                           2068 ;	main.c 151
                           2069 ;	genPlus
                           2070 ;	AOP_STK for _move_snake_sloc4_1_0
                           2071 ;	AOP_STK for _move_snake_sloc5_1_0
                           2072 ;	genPlusIncr
                           2073 ;	Can't optimise plus by inc, falling back to the normal way
   0543 F8 04              2074 	lda	hl,4(sp)
   0545 5E                 2075 	ld	e,(hl)
   0546 23                 2076 	inc	hl
   0547 56                 2077 	ld	d,(hl)
   0548 21 03 00           2078 	ld	hl,#0x0003
   054B 19                 2079 	add	hl,de
   054C 7D                 2080 	ld	a,l
   054D 54                 2081 	ld	d,h
   054E F8 02              2082 	lda	hl,2(sp)
   0550 22                 2083 	ld	(hl+),a
   0551 72                 2084 	ld	(hl),d
                           2085 ;	genPlus
                           2086 ;	AOP_STK for _move_snake_sloc6_1_0
                           2087 ;	genPlusIncr
                           2088 ;	Can't optimise plus by inc, falling back to the normal way
   0552 21 03 00           2089 	ld	hl,#0x0003
   0555 09                 2090 	add	hl,bc
   0556 7D                 2091 	ld	a,l
   0557 54                 2092 	ld	d,h
   0558 F8 00              2093 	lda	hl,0(sp)
                           2094 ;	genPointerGet
                           2095 ;	AOP_STK for _move_snake_sloc6_1_0
   055A 22                 2096 	ld	(hl+),a
   055B 72                 2097 	ld	(hl),d
   055C 5F                 2098 	ld	e,a
   055D 1A                 2099 	ld	a,(de)
                           2100 ;	genAssign (pointer)
                           2101 ;	AOP_STK for _move_snake_sloc5_1_0
   055E 23                 2102 	inc	hl
   055F 5E                 2103 	ld	e,(hl)
   0560 23                 2104 	inc	hl
   0561 56                 2105 	ld	d,(hl)
   0562 12                 2106 	ld	(de),a
                           2107 ;	main.c 152
                           2108 ;	genPlus
                           2109 ;	AOP_STK for _move_snake_sloc4_1_0
                           2110 ;	AOP_STK for _move_snake_sloc6_1_0
                           2111 ;	genPlusIncr
                           2112 ;	Can't optimise plus by inc, falling back to the normal way
   0563 23                 2113 	inc	hl
   0564 5E                 2114 	ld	e,(hl)
   0565 23                 2115 	inc	hl
   0566 56                 2116 	ld	d,(hl)
   0567 21 04 00           2117 	ld	hl,#0x0004
   056A 19                 2118 	add	hl,de
   056B 7D                 2119 	ld	a,l
   056C 54                 2120 	ld	d,h
   056D F8 00              2121 	lda	hl,0(sp)
   056F 22                 2122 	ld	(hl+),a
   0570 72                 2123 	ld	(hl),d
                           2124 ;	genPlus
                           2125 ;	AOP_STK for _move_snake_sloc5_1_0
                           2126 ;	genPlusIncr
                           2127 ;	Can't optimise plus by inc, falling back to the normal way
   0571 21 04 00           2128 	ld	hl,#0x0004
   0574 09                 2129 	add	hl,bc
   0575 7D                 2130 	ld	a,l
   0576 54                 2131 	ld	d,h
   0577 F8 02              2132 	lda	hl,2(sp)
                           2133 ;	genPointerGet
                           2134 ;	AOP_STK for _move_snake_sloc5_1_0
   0579 22                 2135 	ld	(hl+),a
   057A 72                 2136 	ld	(hl),d
   057B 5F                 2137 	ld	e,a
   057C 1A                 2138 	ld	a,(de)
                           2139 ;	genAssign (pointer)
                           2140 ;	AOP_STK for _move_snake_sloc6_1_0
   057D F8 00              2141 	lda	hl,0(sp)
   057F 5E                 2142 	ld	e,(hl)
   0580 23                 2143 	inc	hl
   0581 56                 2144 	ld	d,(hl)
   0582 12                 2145 	ld	(de),a
                           2146 ;	main.c 154
                           2147 ;	genIpush
                           2148 ; _saveRegsForCall: sendSetSize: 0 deInUse: 0 bcInUse: 1 deSending: 0
   0583 C5                 2149 	push	bc
                           2150 ;	AOP_STK for 
   0584 F8 21              2151 	lda	hl,33(sp)
   0586 2A                 2152 	ld	a,(hl+)
   0587 66                 2153 	ld	h,(hl)
   0588 6F                 2154 	ld	l,a
   0589 E5                 2155 	push	hl
                           2156 ;	genIpush
                           2157 ;	AOP_STK for _move_snake_sloc4_1_0
   058A F8 08              2158 	lda	hl,8(sp)
   058C 2A                 2159 	ld	a,(hl+)
   058D 66                 2160 	ld	h,(hl)
   058E 6F                 2161 	ld	l,a
   058F E5                 2162 	push	hl
                           2163 ;	genCall
   0590 CD 85 02           2164 	call	_background_collision
                           2165 ;	AOP_STK for _move_snake_sloc6_1_0
   0593 F8 06              2166 	lda	hl,6(sp)
   0595 73                 2167 	ld	(hl),e
   0596 E8 04              2168 	lda	sp,4(sp)
   0598 C1                 2169 	pop	bc
                           2170 ;	genIfx
                           2171 ;	AOP_STK for _move_snake_sloc6_1_0
   0599 AF                 2172 	xor	a,a
   059A F8 00              2173 	lda	hl,0(sp)
   059C B6                 2174 	or	a,(hl)
   059D CA AF 05           2175 	jp	z,00112$
                           2176 ;	main.c 155
                           2177 ;	genAssign
                           2178 ;	AOP_STK for _move_snake_sloc3_1_0
                           2179 ;	AOP_STK for _move_snake_newx_1_1
   05A0 F8 06              2180 	lda	hl,6(sp)
   05A2 7E                 2181 	ld	a,(hl)
   05A3 F8 0D              2182 	lda	hl,13(sp)
   05A5 77                 2183 	ld	(hl),a
                           2184 ;	genAssign
                           2185 ;	AOP_STK for _move_snake_newx_1_1
                           2186 ;	(registers are the same)
                           2187 ;	main.c 156
                           2188 ;	genPointerGet
                           2189 ;	AOP_STK for _move_snake_sloc2_1_0
                           2190 ;	AOP_STK for _move_snake_newy_1_1
   05A6 F8 07              2191 	lda	hl,7(sp)
   05A8 5E                 2192 	ld	e,(hl)
   05A9 23                 2193 	inc	hl
   05AA 56                 2194 	ld	d,(hl)
   05AB 1A                 2195 	ld	a,(de)
   05AC F8 0C              2196 	lda	hl,12(sp)
   05AE 77                 2197 	ld	(hl),a
                           2198 ;	genAssign
                           2199 ;	AOP_STK for _move_snake_newy_1_1
                           2200 ;	(registers are the same)
                           2201 ;	genLabel
   05AF                    2202 00112$:
                           2203 ;	main.c 160
                           2204 ;	genPointerGet
                           2205 ;	AOP_STK for _move_snake_sloc0_1_0
                           2206 ;	AOP_STK for _move_snake_sloc6_1_0
   05AF F8 0A              2207 	lda	hl,10(sp)
   05B1 5E                 2208 	ld	e,(hl)
   05B2 23                 2209 	inc	hl
   05B3 56                 2210 	ld	d,(hl)
   05B4 1A                 2211 	ld	a,(de)
   05B5 F8 00              2212 	lda	hl,0(sp)
   05B7 77                 2213 	ld	(hl),a
                           2214 ;	genCmpLt
                           2215 ;	AOP_STK for _move_snake_newx_1_1
                           2216 ;	AOP_STK for _move_snake_sloc6_1_0
   05B8 F8 0D              2217 	lda	hl,13(sp)
   05BA 7E                 2218 	ld	a,(hl)
   05BB F8 00              2219 	lda	hl,0(sp)
   05BD 96                 2220 	sub	a,(hl)
   05BE D2 05 06           2221 	jp	nc,00122$
                           2222 ;	main.c 161
                           2223 ;	genPointerGet
                           2224 ;	AOP_STK for _move_snake_sloc5_1_0
   05C1 0A                 2225 	ld	a,(bc)
   05C2 23                 2226 	inc	hl
   05C3 23                 2227 	inc	hl
   05C4 77                 2228 	ld	(hl),a
                           2229 ;	genIpush
                           2230 ; _saveRegsForCall: sendSetSize: 0 deInUse: 0 bcInUse: 1 deSending: 0
   05C5 C5                 2231 	push	bc
                           2232 ;	AOP_HL for _SNAKE_HEAD_L
   05C6 21 BF 02           2233 	ld	hl,#_SNAKE_HEAD_L
   05C9 7E                 2234 	ld	a,(hl)
   05CA F5                 2235 	push	af
   05CB 33                 2236 	inc	sp
                           2237 ;	genIpush
                           2238 ;	AOP_STK for _move_snake_sloc5_1_0
   05CC F8 05              2239 	lda	hl,5(sp)
   05CE 7E                 2240 	ld	a,(hl)
   05CF F5                 2241 	push	af
   05D0 33                 2242 	inc	sp
                           2243 ;	genCall
   05D1 CD 00 00           2244 	call	_set_sprite_tile
   05D4 E8 02              2245 	lda	sp,2(sp)
   05D6 C1                 2246 	pop	bc
                           2247 ;	main.c 162
                           2248 ;	genIpush
                           2249 ; _saveRegsForCall: sendSetSize: 0 deInUse: 0 bcInUse: 1 deSending: 0
   05D7 C5                 2250 	push	bc
   05D8 3E 00              2251 	ld	a,#0x00
   05DA F5                 2252 	push	af
   05DB 33                 2253 	inc	sp
                           2254 ;	genCall
   05DC CD 00 00           2255 	call	_get_sprite_prop
                           2256 ;	AOP_STK for _move_snake_sloc5_1_0
   05DF F8 05              2257 	lda	hl,5(sp)
   05E1 73                 2258 	ld	(hl),e
   05E2 E8 01              2259 	lda	sp,1(sp)
   05E4 C1                 2260 	pop	bc
                           2261 ;	genAnd
                           2262 ;	AOP_STK for _move_snake_sloc5_1_0
                           2263 ;	AOP_STK for _move_snake_sloc4_1_0
   05E5 F8 02              2264 	lda	hl,2(sp)
   05E7 7E                 2265 	ld	a,(hl)
   05E8 E6 DF              2266 	and	a,#0xDF
   05EA 23                 2267 	inc	hl
   05EB 23                 2268 	inc	hl
   05EC 77                 2269 	ld	(hl),a
                           2270 ;	genPointerGet
                           2271 ;	AOP_STK for _move_snake_sloc5_1_0
   05ED 0A                 2272 	ld	a,(bc)
   05EE 2B                 2273 	dec	hl
   05EF 2B                 2274 	dec	hl
   05F0 77                 2275 	ld	(hl),a
                           2276 ;	genIpush
                           2277 ; _saveRegsForCall: sendSetSize: 0 deInUse: 0 bcInUse: 1 deSending: 0
   05F1 C5                 2278 	push	bc
                           2279 ;	AOP_STK for _move_snake_sloc4_1_0
   05F2 23                 2280 	inc	hl
   05F3 23                 2281 	inc	hl
   05F4 7E                 2282 	ld	a,(hl)
   05F5 F5                 2283 	push	af
   05F6 33                 2284 	inc	sp
                           2285 ;	genIpush
                           2286 ;	AOP_STK for _move_snake_sloc5_1_0
   05F7 2B                 2287 	dec	hl
   05F8 2B                 2288 	dec	hl
   05F9 7E                 2289 	ld	a,(hl)
   05FA F5                 2290 	push	af
   05FB 33                 2291 	inc	sp
                           2292 ;	genCall
   05FC CD 00 00           2293 	call	_set_sprite_prop
   05FF E8 02              2294 	lda	sp,2(sp)
   0601 C1                 2295 	pop	bc
                           2296 ;	genGoto
   0602 C3 C0 06           2297 	jp	00123$
                           2298 ;	genLabel
   0605                    2299 00122$:
                           2300 ;	main.c 164
                           2301 ;	genCmpGt
                           2302 ;	AOP_STK for _move_snake_newx_1_1
                           2303 ;	AOP_STK for _move_snake_sloc6_1_0
   0605 F8 00              2304 	lda	hl,0(sp)
   0607 7E                 2305 	ld	a,(hl)
   0608 F8 0D              2306 	lda	hl,13(sp)
   060A 96                 2307 	sub	a,(hl)
   060B D2 39 06           2308 	jp	nc,00119$
                           2309 ;	main.c 165
                           2310 ;	genPointerGet
                           2311 ;	AOP_STK for _move_snake_sloc6_1_0
   060E 0A                 2312 	ld	a,(bc)
   060F F8 00              2313 	lda	hl,0(sp)
   0611 77                 2314 	ld	(hl),a
                           2315 ;	genIpush
                           2316 ; _saveRegsForCall: sendSetSize: 0 deInUse: 0 bcInUse: 1 deSending: 0
   0612 C5                 2317 	push	bc
                           2318 ;	AOP_HL for _SNAKE_HEAD_L
   0613 21 BF 02           2319 	ld	hl,#_SNAKE_HEAD_L
   0616 7E                 2320 	ld	a,(hl)
   0617 F5                 2321 	push	af
   0618 33                 2322 	inc	sp
                           2323 ;	genIpush
                           2324 ;	AOP_STK for _move_snake_sloc6_1_0
   0619 F8 03              2325 	lda	hl,3(sp)
   061B 7E                 2326 	ld	a,(hl)
   061C F5                 2327 	push	af
   061D 33                 2328 	inc	sp
                           2329 ;	genCall
   061E CD 00 00           2330 	call	_set_sprite_tile
   0621 E8 02              2331 	lda	sp,2(sp)
   0623 C1                 2332 	pop	bc
                           2333 ;	main.c 166
                           2334 ;	genPointerGet
                           2335 ;	AOP_STK for _move_snake_sloc6_1_0
   0624 0A                 2336 	ld	a,(bc)
   0625 F8 00              2337 	lda	hl,0(sp)
   0627 77                 2338 	ld	(hl),a
                           2339 ;	genIpush
                           2340 ; _saveRegsForCall: sendSetSize: 0 deInUse: 0 bcInUse: 1 deSending: 0
   0628 C5                 2341 	push	bc
   0629 3E 20              2342 	ld	a,#0x20
   062B F5                 2343 	push	af
   062C 33                 2344 	inc	sp
                           2345 ;	genIpush
                           2346 ;	AOP_STK for _move_snake_sloc6_1_0
   062D 7E                 2347 	ld	a,(hl)
   062E F5                 2348 	push	af
   062F 33                 2349 	inc	sp
                           2350 ;	genCall
   0630 CD 00 00           2351 	call	_set_sprite_prop
   0633 E8 02              2352 	lda	sp,2(sp)
   0635 C1                 2353 	pop	bc
                           2354 ;	genGoto
   0636 C3 C0 06           2355 	jp	00123$
                           2356 ;	genLabel
   0639                    2357 00119$:
                           2358 ;	main.c 168
                           2359 ;	genPointerGet
                           2360 ;	AOP_STK for _move_snake_sloc2_1_0
                           2361 ;	AOP_STK for _move_snake_sloc6_1_0
   0639 F8 07              2362 	lda	hl,7(sp)
   063B 5E                 2363 	ld	e,(hl)
   063C 23                 2364 	inc	hl
   063D 56                 2365 	ld	d,(hl)
   063E 1A                 2366 	ld	a,(de)
   063F F8 00              2367 	lda	hl,0(sp)
   0641 77                 2368 	ld	(hl),a
                           2369 ;	genCmpLt
                           2370 ;	AOP_STK for _move_snake_newy_1_1
                           2371 ;	AOP_STK for _move_snake_sloc6_1_0
   0642 F8 0C              2372 	lda	hl,12(sp)
   0644 7E                 2373 	ld	a,(hl)
   0645 F8 00              2374 	lda	hl,0(sp)
   0647 96                 2375 	sub	a,(hl)
   0648 D2 8F 06           2376 	jp	nc,00116$
                           2377 ;	main.c 169
                           2378 ;	genPointerGet
                           2379 ;	AOP_STK for _move_snake_sloc5_1_0
   064B 0A                 2380 	ld	a,(bc)
   064C 23                 2381 	inc	hl
   064D 23                 2382 	inc	hl
   064E 77                 2383 	ld	(hl),a
                           2384 ;	genIpush
                           2385 ; _saveRegsForCall: sendSetSize: 0 deInUse: 0 bcInUse: 1 deSending: 0
   064F C5                 2386 	push	bc
                           2387 ;	AOP_HL for _SNAKE_HEAD_UP
   0650 21 BE 02           2388 	ld	hl,#_SNAKE_HEAD_UP
   0653 7E                 2389 	ld	a,(hl)
   0654 F5                 2390 	push	af
   0655 33                 2391 	inc	sp
                           2392 ;	genIpush
                           2393 ;	AOP_STK for _move_snake_sloc5_1_0
   0656 F8 05              2394 	lda	hl,5(sp)
   0658 7E                 2395 	ld	a,(hl)
   0659 F5                 2396 	push	af
   065A 33                 2397 	inc	sp
                           2398 ;	genCall
   065B CD 00 00           2399 	call	_set_sprite_tile
   065E E8 02              2400 	lda	sp,2(sp)
   0660 C1                 2401 	pop	bc
                           2402 ;	main.c 170
                           2403 ;	genIpush
                           2404 ; _saveRegsForCall: sendSetSize: 0 deInUse: 0 bcInUse: 1 deSending: 0
   0661 C5                 2405 	push	bc
   0662 3E 00              2406 	ld	a,#0x00
   0664 F5                 2407 	push	af
   0665 33                 2408 	inc	sp
                           2409 ;	genCall
   0666 CD 00 00           2410 	call	_get_sprite_prop
                           2411 ;	AOP_STK for _move_snake_sloc5_1_0
   0669 F8 05              2412 	lda	hl,5(sp)
   066B 73                 2413 	ld	(hl),e
   066C E8 01              2414 	lda	sp,1(sp)
   066E C1                 2415 	pop	bc
                           2416 ;	genAnd
                           2417 ;	AOP_STK for _move_snake_sloc5_1_0
                           2418 ;	AOP_STK for _move_snake_sloc4_1_0
   066F F8 02              2419 	lda	hl,2(sp)
   0671 7E                 2420 	ld	a,(hl)
   0672 E6 BF              2421 	and	a,#0xBF
   0674 23                 2422 	inc	hl
   0675 23                 2423 	inc	hl
   0676 77                 2424 	ld	(hl),a
                           2425 ;	genPointerGet
                           2426 ;	AOP_STK for _move_snake_sloc5_1_0
   0677 0A                 2427 	ld	a,(bc)
   0678 2B                 2428 	dec	hl
   0679 2B                 2429 	dec	hl
   067A 77                 2430 	ld	(hl),a
                           2431 ;	genIpush
                           2432 ; _saveRegsForCall: sendSetSize: 0 deInUse: 0 bcInUse: 1 deSending: 0
   067B C5                 2433 	push	bc
                           2434 ;	AOP_STK for _move_snake_sloc4_1_0
   067C 23                 2435 	inc	hl
   067D 23                 2436 	inc	hl
   067E 7E                 2437 	ld	a,(hl)
   067F F5                 2438 	push	af
   0680 33                 2439 	inc	sp
                           2440 ;	genIpush
                           2441 ;	AOP_STK for _move_snake_sloc5_1_0
   0681 2B                 2442 	dec	hl
   0682 2B                 2443 	dec	hl
   0683 7E                 2444 	ld	a,(hl)
   0684 F5                 2445 	push	af
   0685 33                 2446 	inc	sp
                           2447 ;	genCall
   0686 CD 00 00           2448 	call	_set_sprite_prop
   0689 E8 02              2449 	lda	sp,2(sp)
   068B C1                 2450 	pop	bc
                           2451 ;	genGoto
   068C C3 C0 06           2452 	jp	00123$
                           2453 ;	genLabel
   068F                    2454 00116$:
                           2455 ;	main.c 172
                           2456 ;	genCmpGt
                           2457 ;	AOP_STK for _move_snake_newy_1_1
                           2458 ;	AOP_STK for _move_snake_sloc6_1_0
   068F F8 00              2459 	lda	hl,0(sp)
   0691 7E                 2460 	ld	a,(hl)
   0692 F8 0C              2461 	lda	hl,12(sp)
   0694 96                 2462 	sub	a,(hl)
   0695 D2 C0 06           2463 	jp	nc,00123$
                           2464 ;	main.c 173
                           2465 ;	genPointerGet
                           2466 ;	AOP_STK for _move_snake_sloc6_1_0
   0698 0A                 2467 	ld	a,(bc)
   0699 F8 00              2468 	lda	hl,0(sp)
   069B 77                 2469 	ld	(hl),a
                           2470 ;	genIpush
                           2471 ; _saveRegsForCall: sendSetSize: 0 deInUse: 0 bcInUse: 1 deSending: 0
   069C C5                 2472 	push	bc
                           2473 ;	AOP_HL for _SNAKE_HEAD_UP
   069D 21 BE 02           2474 	ld	hl,#_SNAKE_HEAD_UP
   06A0 7E                 2475 	ld	a,(hl)
   06A1 F5                 2476 	push	af
   06A2 33                 2477 	inc	sp
                           2478 ;	genIpush
                           2479 ;	AOP_STK for _move_snake_sloc6_1_0
   06A3 F8 03              2480 	lda	hl,3(sp)
   06A5 7E                 2481 	ld	a,(hl)
   06A6 F5                 2482 	push	af
   06A7 33                 2483 	inc	sp
                           2484 ;	genCall
   06A8 CD 00 00           2485 	call	_set_sprite_tile
   06AB E8 02              2486 	lda	sp,2(sp)
   06AD C1                 2487 	pop	bc
                           2488 ;	main.c 174
                           2489 ;	genPointerGet
                           2490 ;	AOP_STK for _move_snake_sloc6_1_0
   06AE 0A                 2491 	ld	a,(bc)
   06AF F8 00              2492 	lda	hl,0(sp)
   06B1 77                 2493 	ld	(hl),a
                           2494 ;	genIpush
                           2495 ; _saveRegsForCall: sendSetSize: 0 deInUse: 0 bcInUse: 1 deSending: 0
   06B2 C5                 2496 	push	bc
   06B3 3E 40              2497 	ld	a,#0x40
   06B5 F5                 2498 	push	af
   06B6 33                 2499 	inc	sp
                           2500 ;	genIpush
                           2501 ;	AOP_STK for _move_snake_sloc6_1_0
   06B7 7E                 2502 	ld	a,(hl)
   06B8 F5                 2503 	push	af
   06B9 33                 2504 	inc	sp
                           2505 ;	genCall
   06BA CD 00 00           2506 	call	_set_sprite_prop
   06BD E8 02              2507 	lda	sp,2(sp)
   06BF C1                 2508 	pop	bc
                           2509 ;	genLabel
   06C0                    2510 00123$:
                           2511 ;	main.c 178
                           2512 ;	genAssign (pointer)
                           2513 ;	AOP_STK for _move_snake_sloc0_1_0
                           2514 ;	AOP_STK for _move_snake_newx_1_1
   06C0 F8 0A              2515 	lda	hl,10(sp)
   06C2 5E                 2516 	ld	e,(hl)
   06C3 23                 2517 	inc	hl
   06C4 56                 2518 	ld	d,(hl)
   06C5 23                 2519 	inc	hl
   06C6 23                 2520 	inc	hl
   06C7 7E                 2521 	ld	a,(hl)
   06C8 12                 2522 	ld	(de),a
                           2523 ;	main.c 179
                           2524 ;	genAssign (pointer)
                           2525 ;	AOP_STK for _move_snake_sloc2_1_0
                           2526 ;	AOP_STK for _move_snake_newy_1_1
   06C9 F8 07              2527 	lda	hl,7(sp)
   06CB 5E                 2528 	ld	e,(hl)
   06CC 23                 2529 	inc	hl
   06CD 56                 2530 	ld	d,(hl)
   06CE F8 0C              2531 	lda	hl,12(sp)
   06D0 7E                 2532 	ld	a,(hl)
   06D1 12                 2533 	ld	(de),a
                           2534 ;	main.c 180
                           2535 ;	genPointerGet
                           2536 ;	AOP_STK for _move_snake_sloc6_1_0
   06D2 0A                 2537 	ld	a,(bc)
   06D3 F8 00              2538 	lda	hl,0(sp)
   06D5 77                 2539 	ld	(hl),a
                           2540 ;	genIpush
                           2541 ; _saveRegsForCall: sendSetSize: 0 deInUse: 0 bcInUse: 1 deSending: 0
   06D6 C5                 2542 	push	bc
                           2543 ;	AOP_STK for _move_snake_newy_1_1
   06D7 F8 0E              2544 	lda	hl,14(sp)
   06D9 7E                 2545 	ld	a,(hl)
   06DA F5                 2546 	push	af
   06DB 33                 2547 	inc	sp
                           2548 ;	genIpush
                           2549 ;	AOP_STK for _move_snake_newx_1_1
   06DC 23                 2550 	inc	hl
   06DD 7E                 2551 	ld	a,(hl)
   06DE F5                 2552 	push	af
   06DF 33                 2553 	inc	sp
                           2554 ;	genIpush
                           2555 ;	AOP_STK for _move_snake_sloc6_1_0
   06E0 F8 04              2556 	lda	hl,4(sp)
   06E2 7E                 2557 	ld	a,(hl)
   06E3 F5                 2558 	push	af
   06E4 33                 2559 	inc	sp
                           2560 ;	genCall
   06E5 CD 00 00           2561 	call	_move_sprite
   06E8 E8 03              2562 	lda	sp,3(sp)
   06EA C1                 2563 	pop	bc
                           2564 ;	main.c 183
                           2565 ;	genPlus
                           2566 ;	genPlusIncr
   06EB 03                 2567 	inc	bc
   06EC 03                 2568 	inc	bc
   06ED 03                 2569 	inc	bc
   06EE 03                 2570 	inc	bc
   06EF 03                 2571 	inc	bc
                           2572 ;	genPointerGet
   06F0 59                 2573 	ld	e,c
   06F1 50                 2574 	ld	d,b
   06F2 1A                 2575 	ld	a,(de)
   06F3 4F                 2576 	ld	c,a
   06F4 13                 2577 	inc	de
   06F5 1A                 2578 	ld	a,(de)
   06F6 47                 2579 	ld	b,a
                           2580 ;	genAssign
                           2581 ;	AOP_STK for _move_snake_tail_1_1
   06F7 F8 17              2582 	lda	hl,23(sp)
   06F9 71                 2583 	ld	(hl),c
   06FA 23                 2584 	inc	hl
   06FB 70                 2585 	ld	(hl),b
                           2586 ;	main.c 185
                           2587 ;	genLabel
   06FC                    2588 00128$:
                           2589 ;	main.c 186
                           2590 ;	genAssign
                           2591 ;	AOP_STK for _move_snake_headx_1_1
                           2592 ;	AOP_STK for _move_snake_newx_1_1
   06FC F8 0F              2593 	lda	hl,15(sp)
   06FE 7E                 2594 	ld	a,(hl)
   06FF 2B                 2595 	dec	hl
   0700 2B                 2596 	dec	hl
                           2597 ;	main.c 187
                           2598 ;	genAssign
                           2599 ;	AOP_STK for _move_snake_heady_1_1
                           2600 ;	AOP_STK for _move_snake_newy_1_1
   0701 22                 2601 	ld	(hl+),a
   0702 7E                 2602 	ld	a,(hl)
   0703 2B                 2603 	dec	hl
   0704 2B                 2604 	dec	hl
   0705 77                 2605 	ld	(hl),a
                           2606 ;	main.c 188
                           2607 ;	genPlus
                           2608 ;	AOP_STK for _move_snake_tail_1_1
                           2609 ;	AOP_STK for _move_snake_sloc6_1_0
                           2610 ;	genPlusIncr
                           2611 ;	Can't optimise plus by inc, falling back to the normal way
   0706 F8 17              2612 	lda	hl,23(sp)
   0708 5E                 2613 	ld	e,(hl)
   0709 23                 2614 	inc	hl
   070A 56                 2615 	ld	d,(hl)
   070B 21 01 00           2616 	ld	hl,#0x0001
   070E 19                 2617 	add	hl,de
   070F 7D                 2618 	ld	a,l
   0710 54                 2619 	ld	d,h
   0711 F8 00              2620 	lda	hl,0(sp)
                           2621 ;	genPointerGet
                           2622 ;	AOP_STK for _move_snake_sloc6_1_0
                           2623 ;	AOP_STK for _move_snake_headx_1_1
   0713 22                 2624 	ld	(hl+),a
   0714 72                 2625 	ld	(hl),d
   0715 5F                 2626 	ld	e,a
   0716 1A                 2627 	ld	a,(de)
   0717 F8 0F              2628 	lda	hl,15(sp)
   0719 77                 2629 	ld	(hl),a
                           2630 ;	genAssign
                           2631 ;	AOP_STK for _move_snake_headx_1_1
                           2632 ;	(registers are the same)
                           2633 ;	main.c 189
                           2634 ;	genPlus
                           2635 ;	AOP_STK for _move_snake_tail_1_1
                           2636 ;	AOP_STK for _move_snake_sloc5_1_0
                           2637 ;	genPlusIncr
                           2638 ;	Can't optimise plus by inc, falling back to the normal way
   071A F8 17              2639 	lda	hl,23(sp)
   071C 5E                 2640 	ld	e,(hl)
   071D 23                 2641 	inc	hl
   071E 56                 2642 	ld	d,(hl)
   071F 21 02 00           2643 	ld	hl,#0x0002
   0722 19                 2644 	add	hl,de
   0723 7D                 2645 	ld	a,l
   0724 54                 2646 	ld	d,h
   0725 F8 02              2647 	lda	hl,2(sp)
                           2648 ;	genPointerGet
                           2649 ;	AOP_STK for _move_snake_sloc5_1_0
                           2650 ;	AOP_STK for _move_snake_heady_1_1
   0727 22                 2651 	ld	(hl+),a
   0728 72                 2652 	ld	(hl),d
   0729 5F                 2653 	ld	e,a
   072A 1A                 2654 	ld	a,(de)
   072B F8 0E              2655 	lda	hl,14(sp)
   072D 77                 2656 	ld	(hl),a
                           2657 ;	genAssign
                           2658 ;	AOP_STK for _move_snake_heady_1_1
                           2659 ;	(registers are the same)
                           2660 ;	main.c 190
                           2661 ;	genAssign (pointer)
                           2662 ;	AOP_STK for _move_snake_sloc6_1_0
                           2663 ;	AOP_STK for _move_snake_newx_1_1
   072E F8 00              2664 	lda	hl,0(sp)
   0730 5E                 2665 	ld	e,(hl)
   0731 23                 2666 	inc	hl
   0732 56                 2667 	ld	d,(hl)
   0733 F8 0D              2668 	lda	hl,13(sp)
   0735 7E                 2669 	ld	a,(hl)
   0736 12                 2670 	ld	(de),a
                           2671 ;	main.c 191
                           2672 ;	genAssign (pointer)
                           2673 ;	AOP_STK for _move_snake_sloc5_1_0
                           2674 ;	AOP_STK for _move_snake_newy_1_1
   0737 F8 02              2675 	lda	hl,2(sp)
   0739 5E                 2676 	ld	e,(hl)
   073A 23                 2677 	inc	hl
   073B 56                 2678 	ld	d,(hl)
   073C F8 0C              2679 	lda	hl,12(sp)
   073E 7E                 2680 	ld	a,(hl)
   073F 12                 2681 	ld	(de),a
                           2682 ;	main.c 193
                           2683 ;	genPointerGet
                           2684 ;	AOP_STK for _move_snake_tail_1_1
                           2685 ;	AOP_STK for _move_snake_sloc6_1_0
   0740 F8 17              2686 	lda	hl,23(sp)
   0742 5E                 2687 	ld	e,(hl)
   0743 23                 2688 	inc	hl
   0744 56                 2689 	ld	d,(hl)
   0745 1A                 2690 	ld	a,(de)
   0746 F8 00              2691 	lda	hl,0(sp)
   0748 77                 2692 	ld	(hl),a
                           2693 ;	genIpush
                           2694 ; _saveRegsForCall: sendSetSize: 0 deInUse: 0 bcInUse: 0 deSending: 0
                           2695 ;	AOP_STK for _move_snake_newy_1_1
   0749 F8 0C              2696 	lda	hl,12(sp)
   074B 7E                 2697 	ld	a,(hl)
   074C F5                 2698 	push	af
   074D 33                 2699 	inc	sp
                           2700 ;	genIpush
                           2701 ;	AOP_STK for _move_snake_newx_1_1
   074E 23                 2702 	inc	hl
   074F 7E                 2703 	ld	a,(hl)
   0750 F5                 2704 	push	af
   0751 33                 2705 	inc	sp
                           2706 ;	genIpush
                           2707 ;	AOP_STK for _move_snake_sloc6_1_0
   0752 F8 02              2708 	lda	hl,2(sp)
   0754 7E                 2709 	ld	a,(hl)
   0755 F5                 2710 	push	af
   0756 33                 2711 	inc	sp
                           2712 ;	genCall
   0757 CD 00 00           2713 	call	_move_sprite
   075A E8 03              2714 	lda	sp,3(sp)
                           2715 ;	main.c 195
                           2716 ;	genPlus
                           2717 ;	AOP_STK for _move_snake_tail_1_1
                           2718 ;	AOP_STK for _move_snake_sloc6_1_0
                           2719 ;	genPlusIncr
                           2720 ;	Can't optimise plus by inc, falling back to the normal way
   075C F8 17              2721 	lda	hl,23(sp)
   075E 5E                 2722 	ld	e,(hl)
   075F 23                 2723 	inc	hl
   0760 56                 2724 	ld	d,(hl)
   0761 21 05 00           2725 	ld	hl,#0x0005
   0764 19                 2726 	add	hl,de
   0765 7D                 2727 	ld	a,l
   0766 54                 2728 	ld	d,h
   0767 F8 00              2729 	lda	hl,0(sp)
                           2730 ;	genPointerGet
                           2731 ;	AOP_STK for _move_snake_sloc6_1_0
   0769 22                 2732 	ld	(hl+),a
   076A 72                 2733 	ld	(hl),d
   076B 5F                 2734 	ld	e,a
   076C 1A                 2735 	ld	a,(de)
   076D 4F                 2736 	ld	c,a
   076E 13                 2737 	inc	de
   076F 1A                 2738 	ld	a,(de)
   0770 47                 2739 	ld	b,a
                           2740 ;	genCmpEq
                           2741 ; genCmpEq: left 2, right 2, result 0
   0771 79                 2742 	ld	a,c
   0772 B0                 2743 	or	a,b
   0773 CA 7E 07           2744 	jp	z,00130$
   0776                    2745 00143$:
                           2746 ;	main.c 200
                           2747 ;	genAssign
                           2748 ;	(registers are the same)
                           2749 ;	genAssign
                           2750 ;	AOP_STK for _move_snake_tail_1_1
   0776 F8 17              2751 	lda	hl,23(sp)
   0778 71                 2752 	ld	(hl),c
   0779 23                 2753 	inc	hl
   077A 70                 2754 	ld	(hl),b
                           2755 ;	genGoto
   077B C3 FC 06           2756 	jp	00128$
                           2757 ;	genLabel
   077E                    2758 00130$:
                           2759 ;	genEndFunction
   077E E8 19              2760 	lda	sp,25(sp)
   0780 C9                 2761 	ret
   0781                    2762 ___move_snake_end:
                           2763 ;	main.c 205
                           2764 ;	genLabel
                           2765 ;	genFunction
                           2766 ;	---------------------------------
                           2767 ; Function movefood
                           2768 ; ---------------------------------
   0781                    2769 ___movefood_start:
   0781                    2770 _movefood:
   0781 E8 F7              2771 	lda	sp,-9(sp)
                           2772 ;	main.c 209
                           2773 ;	genLabel
   0783                    2774 00101$:
                           2775 ;	genAssign
                           2776 ;	AOP_STK for 
   0783 F8 0F              2777 	lda	hl,15(sp)
   0785 4E                 2778 	ld	c,(hl)
   0786 23                 2779 	inc	hl
   0787 46                 2780 	ld	b,(hl)
                           2781 ;	genPlus
                           2782 ;	genPlusIncr
   0788 03                 2783 	inc	bc
   0789 03                 2784 	inc	bc
   078A 03                 2785 	inc	bc
   078B 03                 2786 	inc	bc
   078C 03                 2787 	inc	bc
                           2788 ;	genPointerGet
   078D 59                 2789 	ld	e,c
   078E 50                 2790 	ld	d,b
   078F 1A                 2791 	ld	a,(de)
   0790 4F                 2792 	ld	c,a
   0791 13                 2793 	inc	de
   0792 1A                 2794 	ld	a,(de)
   0793 47                 2795 	ld	b,a
                           2796 ;	genCmpEq
                           2797 ; genCmpEq: left 2, right 2, result 0
   0794 79                 2798 	ld	a,c
   0795 B0                 2799 	or	a,b
   0796 CA A1 07           2800 	jp	z,00103$
   0799                    2801 00122$:
                           2802 ;	main.c 210
                           2803 ;	genAssign
                           2804 ;	(registers are the same)
                           2805 ;	genAssign
                           2806 ;	AOP_STK for 
   0799 F8 0F              2807 	lda	hl,15(sp)
   079B 71                 2808 	ld	(hl),c
   079C 23                 2809 	inc	hl
   079D 70                 2810 	ld	(hl),b
                           2811 ;	genGoto
   079E C3 83 07           2812 	jp	00101$
                           2813 ;	genLabel
   07A1                    2814 00103$:
                           2815 ;	main.c 215
                           2816 ;	genAssign
                           2817 ;	AOP_STK for 
   07A1 F8 0B              2818 	lda	hl,11(sp)
   07A3 4E                 2819 	ld	c,(hl)
   07A4 23                 2820 	inc	hl
   07A5 46                 2821 	ld	b,(hl)
                           2822 ;	genPlus
                           2823 ;	AOP_STK for _movefood_sloc0_1_0
                           2824 ;	genPlusIncr
                           2825 ;	Can't optimise plus by inc, falling back to the normal way
   07A6 21 01 00           2826 	ld	hl,#0x0001
   07A9 09                 2827 	add	hl,bc
   07AA 7D                 2828 	ld	a,l
   07AB 54                 2829 	ld	d,h
   07AC F8 05              2830 	lda	hl,5(sp)
                           2831 ;	genPointerGet
                           2832 ;	AOP_STK for _movefood_sloc0_1_0
                           2833 ;	AOP_STK for _movefood_sloc1_1_0
   07AE 22                 2834 	ld	(hl+),a
   07AF 72                 2835 	ld	(hl),d
   07B0 5F                 2836 	ld	e,a
   07B1 1A                 2837 	ld	a,(de)
   07B2 2B                 2838 	dec	hl
   07B3 2B                 2839 	dec	hl
                           2840 ;	genPlus
                           2841 ;	AOP_STK for _movefood_sloc1_1_0
                           2842 ;	AOP_STK for 
                           2843 ;	AOP_STK for _movefood_newx_1_1
                           2844 ;	Can't optimise plus by inc, falling back to the normal way
   07B4 77                 2845 	ld      (hl),a
                           2846 ; Removed redundent load
   07B5 F8 0D              2847 	lda	hl,13(sp)
   07B7 86                 2848 	add	a,(hl)
   07B8 F8 08              2849 	lda	hl,8(sp)
   07BA 77                 2850 	ld	(hl),a
                           2851 ;	genAssign
                           2852 ;	AOP_STK for _movefood_newx_1_1
                           2853 ;	(registers are the same)
                           2854 ;	main.c 216
                           2855 ;	genPlus
                           2856 ;	AOP_STK for _movefood_sloc2_1_0
                           2857 ;	genPlusIncr
                           2858 ;	Can't optimise plus by inc, falling back to the normal way
   07BB 21 02 00           2859 	ld	hl,#0x0002
   07BE 09                 2860 	add	hl,bc
   07BF 7D                 2861 	ld	a,l
   07C0 54                 2862 	ld	d,h
   07C1 F8 02              2863 	lda	hl,2(sp)
                           2864 ;	genPointerGet
                           2865 ;	AOP_STK for _movefood_sloc2_1_0
                           2866 ;	AOP_STK for _movefood_sloc1_1_0
   07C3 22                 2867 	ld	(hl+),a
   07C4 72                 2868 	ld	(hl),d
   07C5 5F                 2869 	ld	e,a
   07C6 1A                 2870 	ld	a,(de)
   07C7 23                 2871 	inc	hl
                           2872 ;	genPlus
                           2873 ;	AOP_STK for _movefood_sloc1_1_0
                           2874 ;	AOP_STK for 
                           2875 ;	AOP_STK for _movefood_newy_1_1
                           2876 ;	Can't optimise plus by inc, falling back to the normal way
   07C8 77                 2877 	ld      (hl),a
                           2878 ; Removed redundent load
   07C9 F8 0E              2879 	lda	hl,14(sp)
   07CB 86                 2880 	add	a,(hl)
   07CC F8 07              2881 	lda	hl,7(sp)
   07CE 77                 2882 	ld	(hl),a
                           2883 ;	genAssign
                           2884 ;	AOP_STK for _movefood_newy_1_1
                           2885 ;	(registers are the same)
                           2886 ;	main.c 218
                           2887 ;	genPlus
                           2888 ;	AOP_HL for _SCREEN_L
                           2889 ;	AOP_HL for _SCREEN_WIDTH
                           2890 ;	AOP_STK for _movefood_sloc1_1_0
                           2891 ;	Can't optimise plus by inc, falling back to the normal way
   07CF 21 B8 02           2892 	ld	hl,#_SCREEN_L
   07D2 7E                 2893 	ld	a,(hl)
   07D3 21 B9 02           2894 	ld	hl,#_SCREEN_WIDTH
   07D6 86                 2895 	add	a,(hl)
   07D7 F8 04              2896 	lda	hl,4(sp)
   07D9 77                 2897 	ld	(hl),a
                           2898 ;	genCmpLt
                           2899 ;	AOP_STK for _movefood_newx_1_1
                           2900 ;	AOP_STK for _movefood_sloc1_1_0
   07DA F8 08              2901 	lda	hl,8(sp)
   07DC 7E                 2902 	ld	a,(hl)
   07DD F8 04              2903 	lda	hl,4(sp)
   07DF 96                 2904 	sub	a,(hl)
   07E0 DA EA 07           2905 	jp	c,00107$
                           2906 ;	main.c 219
                           2907 ;	genAssign
                           2908 ;	AOP_STK for _movefood_sloc1_1_0
                           2909 ;	AOP_STK for _movefood_newx_1_1
   07E3 7E                 2910 	ld	a,(hl)
   07E4 F8 08              2911 	lda	hl,8(sp)
   07E6 77                 2912 	ld	(hl),a
                           2913 ;	genAssign
                           2914 ;	AOP_STK for _movefood_newx_1_1
                           2915 ;	(registers are the same)
                           2916 ;	genGoto
   07E7 C3 0F 08           2917 	jp	00108$
                           2918 ;	genLabel
   07EA                    2919 00107$:
                           2920 ;	main.c 221
                           2921 ;	genPlus
                           2922 ;	AOP_STK for _movefood_sloc3_1_0
                           2923 ;	genPlusIncr
                           2924 ;	Can't optimise plus by inc, falling back to the normal way
   07EA 21 03 00           2925 	ld	hl,#0x0003
   07ED 09                 2926 	add	hl,bc
   07EE 7D                 2927 	ld	a,l
   07EF 54                 2928 	ld	d,h
   07F0 F8 00              2929 	lda	hl,0(sp)
                           2930 ;	genPointerGet
                           2931 ;	AOP_STK for _movefood_sloc3_1_0
                           2932 ;	AOP_STK for _movefood_sloc1_1_0
   07F2 22                 2933 	ld	(hl+),a
   07F3 72                 2934 	ld	(hl),d
   07F4 5F                 2935 	ld	e,a
   07F5 1A                 2936 	ld	a,(de)
   07F6 F8 04              2937 	lda	hl,4(sp)
   07F8 77                 2938 	ld	(hl),a
                           2939 ;	genPlus
                           2940 ;	AOP_HL for _SCREEN_L
                           2941 ;	AOP_STK for _movefood_sloc1_1_0
                           2942 ;	AOP_STK for _movefood_sloc3_1_0
                           2943 ;	Can't optimise plus by inc, falling back to the normal way
   07F9 21 B8 02           2944 	ld	hl,#_SCREEN_L
   07FC 7E                 2945 	ld	a,(hl)
   07FD F8 04              2946 	lda	hl,4(sp)
   07FF 86                 2947 	add	a,(hl)
   0800 F8 00              2948 	lda	hl,0(sp)
                           2949 ;	genCmpGt
                           2950 ;	AOP_STK for _movefood_newx_1_1
                           2951 ;	AOP_STK for _movefood_sloc3_1_0
   0802 77                 2952 	ld      (hl),a
                           2953 ; Removed redundent load
   0803 F8 08              2954 	lda	hl,8(sp)
   0805 96                 2955 	sub	a,(hl)
   0806 DA 0F 08           2956 	jp	c,00108$
                           2957 ;	main.c 222
                           2958 ;	genAssign
                           2959 ;	AOP_STK for _movefood_sloc3_1_0
                           2960 ;	AOP_STK for _movefood_newx_1_1
   0809 F8 00              2961 	lda	hl,0(sp)
   080B 7E                 2962 	ld	a,(hl)
   080C F8 08              2963 	lda	hl,8(sp)
   080E 77                 2964 	ld	(hl),a
                           2965 ;	genAssign
                           2966 ;	AOP_STK for _movefood_newx_1_1
                           2967 ;	(registers are the same)
                           2968 ;	genLabel
   080F                    2969 00108$:
                           2970 ;	main.c 225
                           2971 ;	genPlus
                           2972 ;	AOP_HL for _SCREEN_T
                           2973 ;	AOP_HL for _SCREEN_HEIGHT
                           2974 ;	AOP_STK for _movefood_sloc3_1_0
                           2975 ;	Can't optimise plus by inc, falling back to the normal way
   080F 21 BA 02           2976 	ld	hl,#_SCREEN_T
   0812 7E                 2977 	ld	a,(hl)
   0813 21 BB 02           2978 	ld	hl,#_SCREEN_HEIGHT
   0816 86                 2979 	add	a,(hl)
   0817 F8 00              2980 	lda	hl,0(sp)
   0819 77                 2981 	ld	(hl),a
                           2982 ;	genCmpLt
                           2983 ;	AOP_STK for _movefood_newy_1_1
                           2984 ;	AOP_STK for _movefood_sloc3_1_0
   081A F8 07              2985 	lda	hl,7(sp)
   081C 7E                 2986 	ld	a,(hl)
   081D F8 00              2987 	lda	hl,0(sp)
   081F 96                 2988 	sub	a,(hl)
   0820 DA 2A 08           2989 	jp	c,00112$
                           2990 ;	main.c 226
                           2991 ;	genAssign
                           2992 ;	AOP_STK for _movefood_sloc3_1_0
                           2993 ;	AOP_STK for _movefood_newy_1_1
   0823 7E                 2994 	ld	a,(hl)
   0824 F8 07              2995 	lda	hl,7(sp)
   0826 77                 2996 	ld	(hl),a
                           2997 ;	genAssign
                           2998 ;	AOP_STK for _movefood_newy_1_1
                           2999 ;	(registers are the same)
                           3000 ;	genGoto
   0827 C3 4F 08           3001 	jp	00113$
                           3002 ;	genLabel
   082A                    3003 00112$:
                           3004 ;	main.c 228
                           3005 ;	genPlus
                           3006 ;	AOP_STK for _movefood_sloc3_1_0
                           3007 ;	genPlusIncr
                           3008 ;	Can't optimise plus by inc, falling back to the normal way
   082A 21 04 00           3009 	ld	hl,#0x0004
   082D 09                 3010 	add	hl,bc
   082E 7D                 3011 	ld	a,l
   082F 54                 3012 	ld	d,h
   0830 F8 00              3013 	lda	hl,0(sp)
                           3014 ;	genPointerGet
                           3015 ;	AOP_STK for _movefood_sloc3_1_0
                           3016 ;	AOP_STK for _movefood_sloc1_1_0
   0832 22                 3017 	ld	(hl+),a
   0833 72                 3018 	ld	(hl),d
   0834 5F                 3019 	ld	e,a
   0835 1A                 3020 	ld	a,(de)
   0836 F8 04              3021 	lda	hl,4(sp)
   0838 77                 3022 	ld	(hl),a
                           3023 ;	genPlus
                           3024 ;	AOP_HL for _SCREEN_T
                           3025 ;	AOP_STK for _movefood_sloc1_1_0
                           3026 ;	AOP_STK for _movefood_sloc3_1_0
                           3027 ;	Can't optimise plus by inc, falling back to the normal way
   0839 21 BA 02           3028 	ld	hl,#_SCREEN_T
   083C 7E                 3029 	ld	a,(hl)
   083D F8 04              3030 	lda	hl,4(sp)
   083F 86                 3031 	add	a,(hl)
   0840 F8 00              3032 	lda	hl,0(sp)
                           3033 ;	genCmpGt
                           3034 ;	AOP_STK for _movefood_newy_1_1
                           3035 ;	AOP_STK for _movefood_sloc3_1_0
   0842 77                 3036 	ld      (hl),a
                           3037 ; Removed redundent load
   0843 F8 07              3038 	lda	hl,7(sp)
   0845 96                 3039 	sub	a,(hl)
   0846 DA 4F 08           3040 	jp	c,00113$
                           3041 ;	main.c 229
                           3042 ;	genAssign
                           3043 ;	AOP_STK for _movefood_sloc3_1_0
                           3044 ;	AOP_STK for _movefood_newy_1_1
   0849 F8 00              3045 	lda	hl,0(sp)
   084B 7E                 3046 	ld	a,(hl)
   084C F8 07              3047 	lda	hl,7(sp)
   084E 77                 3048 	ld	(hl),a
                           3049 ;	genAssign
                           3050 ;	AOP_STK for _movefood_newy_1_1
                           3051 ;	(registers are the same)
                           3052 ;	genLabel
   084F                    3053 00113$:
                           3054 ;	main.c 232
                           3055 ;	genAssign (pointer)
                           3056 ;	AOP_STK for _movefood_sloc0_1_0
                           3057 ;	AOP_STK for _movefood_newx_1_1
   084F F8 05              3058 	lda	hl,5(sp)
   0851 5E                 3059 	ld	e,(hl)
   0852 23                 3060 	inc	hl
   0853 56                 3061 	ld	d,(hl)
   0854 23                 3062 	inc	hl
   0855 23                 3063 	inc	hl
   0856 7E                 3064 	ld	a,(hl)
   0857 12                 3065 	ld	(de),a
                           3066 ;	main.c 233
                           3067 ;	genAssign (pointer)
                           3068 ;	AOP_STK for _movefood_sloc2_1_0
                           3069 ;	AOP_STK for _movefood_newy_1_1
   0858 F8 02              3070 	lda	hl,2(sp)
   085A 5E                 3071 	ld	e,(hl)
   085B 23                 3072 	inc	hl
   085C 56                 3073 	ld	d,(hl)
   085D F8 07              3074 	lda	hl,7(sp)
   085F 7E                 3075 	ld	a,(hl)
   0860 12                 3076 	ld	(de),a
                           3077 ;	main.c 234
                           3078 ;	genPointerGet
   0861 0A                 3079 	ld	a,(bc)
   0862 4F                 3080 	ld	c,a
                           3081 ;	genIpush
                           3082 ; _saveRegsForCall: sendSetSize: 0 deInUse: 0 bcInUse: 0 deSending: 0
                           3083 ;	AOP_STK for _movefood_newy_1_1
   0863 7E                 3084 	ld	a,(hl)
   0864 F5                 3085 	push	af
   0865 33                 3086 	inc	sp
                           3087 ;	genIpush
                           3088 ;	AOP_STK for _movefood_newx_1_1
   0866 23                 3089 	inc	hl
   0867 7E                 3090 	ld	a,(hl)
   0868 F5                 3091 	push	af
   0869 33                 3092 	inc	sp
                           3093 ;	genIpush
   086A 79                 3094 	ld	a,c
   086B F5                 3095 	push	af
   086C 33                 3096 	inc	sp
                           3097 ;	genCall
   086D CD 00 00           3098 	call	_move_sprite
   0870 E8 03              3099 	lda	sp,3(sp)
                           3100 ;	genLabel
   0872                    3101 00114$:
                           3102 ;	genEndFunction
   0872 E8 09              3103 	lda	sp,9(sp)
   0874 C9                 3104 	ret
   0875                    3105 ___movefood_end:
                           3106 ;	main.c 237
                           3107 ;	genLabel
                           3108 ;	genFunction
                           3109 ;	---------------------------------
                           3110 ; Function main
                           3111 ; ---------------------------------
   0875                    3112 ___main_start:
   0875                    3113 _main:
   0875 21 C9 FE           3114 	ld	hl,#-311
   0878 39                 3115 	add	hl,sp
   0879 F9                 3116 	ld	sp,hl
                           3117 ;	main.c 247
                           3118 ;	genAssign
                           3119 ;	AOP_STK for _main_game_over_1_1
   087A F8 0E              3120 	lda	hl,14(sp)
   087C 36 00              3121 	ld	(hl),#0x00
                           3122 ;	main.c 248
                           3123 ;	genAssign
                           3124 ;	AOP_STK for _main_score_1_1
   087E 2B                 3125 	dec	hl
   087F 36 00              3126 	ld	(hl),#0x00
                           3127 ;	main.c 249
                           3128 ;	genAssign
                           3129 ;	AOP_STK for _main_score_increment_1_1
   0881 2B                 3130 	dec	hl
   0882 36 01              3131 	ld	(hl),#0x01
                           3132 ;	main.c 252
                           3133 ;	genIpush
                           3134 ; _saveRegsForCall: sendSetSize: 0 deInUse: 0 bcInUse: 0 deSending: 0
   0884 21 80 00           3135 	ld	hl,#_bkg_tiles
   0887 E5                 3136 	push	hl
                           3137 ;	genIpush
   0888 21 00 0D           3138 	ld	hl,#0x0D00
   088B E5                 3139 	push	hl
                           3140 ;	genCall
   088C CD 00 00           3141 	call	_set_bkg_data
   088F E8 04              3142 	lda	sp,4(sp)
                           3143 ;	main.c 253
                           3144 ;	genIpush
                           3145 ; _saveRegsForCall: sendSetSize: 0 deInUse: 0 bcInUse: 0 deSending: 0
   0891 21 50 01           3146 	ld	hl,#_bkg_map
   0894 E5                 3147 	push	hl
                           3148 ;	genIpush
   0895 21 14 12           3149 	ld	hl,#0x1214
   0898 E5                 3150 	push	hl
                           3151 ;	genIpush
   0899 21 00 00           3152 	ld	hl,#0x0000
   089C E5                 3153 	push	hl
                           3154 ;	genCall
   089D CD 00 00           3155 	call	_set_bkg_tiles
   08A0 E8 06              3156 	lda	sp,6(sp)
                           3157 ;	main.c 256
                           3158 ;	genAddrOf
   08A2 F8 11              3159 	lda	hl,17(sp)
   08A4 4D                 3160 	ld	c,l
   08A5 44                 3161 	ld	b,h
                           3162 ;	genAssign (pointer)
   08A6 3E 48              3163 	ld	a,#0x48
   08A8 02                 3164 	ld	(bc),a
                           3165 ;	main.c 257
                           3166 ;	genPlus
                           3167 ;	genPlusIncr
   08A9 69                 3168 	ld	l,c
   08AA 60                 3169 	ld	h,b
   08AB 23                 3170 	inc	hl
                           3171 ;	genAssign (pointer)
   08AC 36 40              3172 	ld	(hl),#0x40
                           3173 ;	main.c 258
                           3174 ;	genPlus
                           3175 ;	genPlusIncr
   08AE 69                 3176 	ld	l,c
   08AF 60                 3177 	ld	h,b
   08B0 23                 3178 	inc	hl
   08B1 23                 3179 	inc	hl
                           3180 ;	genAssign (pointer)
   08B2 36 08              3181 	ld	(hl),#0x08
                           3182 ;	main.c 259
                           3183 ;	genPlus
                           3184 ;	genPlusIncr
   08B4 21 03 00           3185 	ld	hl,#0x0003
   08B7 09                 3186 	add	hl,bc
                           3187 ;	genAssign (pointer)
   08B8 36 08              3188 	ld	(hl),#0x08
                           3189 ;	main.c 261
                           3190 ;	genPlus
                           3191 ;	AOP_STK for _main_sloc0_1_0
                           3192 ;	genPlusIncr
                           3193 ;	Can't optimise plus by inc, falling back to the normal way
   08BA 21 06 00           3194 	ld	hl,#0x0006
   08BD 09                 3195 	add	hl,bc
   08BE 7D                 3196 	ld	a,l
   08BF 54                 3197 	ld	d,h
   08C0 F8 0A              3198 	lda	hl,10(sp)
   08C2 22                 3199 	ld	(hl+),a
   08C3 72                 3200 	ld	(hl),d
                           3201 ;	genAssign (pointer)
                           3202 ;	AOP_STK for _main_sloc0_1_0
   08C4 2B                 3203 	dec	hl
   08C5 5E                 3204 	ld	e,(hl)
   08C6 23                 3205 	inc	hl
   08C7 56                 3206 	ld	d,(hl)
   08C8 3E 40              3207 	ld	a,#0x40
   08CA 12                 3208 	ld	(de),a
                           3209 ;	main.c 262
                           3210 ;	genPlus
                           3211 ;	genPlusIncr
   08CB 21 07 00           3212 	ld	hl,#0x0007
   08CE 09                 3213 	add	hl,bc
                           3214 ;	genAssign (pointer)
   08CF 36 48              3215 	ld	(hl),#0x48
                           3216 ;	main.c 263
                           3217 ;	genPlus
                           3218 ;	genPlusIncr
   08D1 21 08 00           3219 	ld	hl,#0x0008
   08D4 09                 3220 	add	hl,bc
                           3221 ;	genAssign (pointer)
   08D5 36 08              3222 	ld	(hl),#0x08
                           3223 ;	main.c 264
                           3224 ;	genPlus
                           3225 ;	genPlusIncr
   08D7 21 09 00           3226 	ld	hl,#0x0009
   08DA 09                 3227 	add	hl,bc
                           3228 ;	genAssign (pointer)
   08DB 36 08              3229 	ld	(hl),#0x08
                           3230 ;	main.c 265
                           3231 ;	genPlus
                           3232 ;	genPlusIncr
   08DD 21 04 00           3233 	ld	hl,#0x0004
   08E0 09                 3234 	add	hl,bc
                           3235 ;	genAssign (pointer)
                           3236 ;	AOP_STK for _main_sloc0_1_0
   08E1 5D                 3237 	ld	e,l
   08E2 54                 3238 	ld	d,h
   08E3 F8 0A              3239 	lda	hl,10(sp)
   08E5 7E                 3240 	ld	a,(hl)
   08E6 12                 3241 	ld	(de),a
   08E7 13                 3242 	inc	de
   08E8 23                 3243 	inc	hl
   08E9 7E                 3244 	ld	a,(hl)
   08EA 12                 3245 	ld	(de),a
                           3246 ;	main.c 266
                           3247 ;	genPlus
                           3248 ;	AOP_STK for _main_sloc0_1_0
                           3249 ;	genPlusIncr
                           3250 ;	Can't optimise plus by inc, falling back to the normal way
   08EB 2B                 3251 	dec	hl
   08EC 5E                 3252 	ld	e,(hl)
   08ED 23                 3253 	inc	hl
   08EE 56                 3254 	ld	d,(hl)
   08EF 21 04 00           3255 	ld	hl,#0x0004
   08F2 19                 3256 	add	hl,de
   08F3 7D                 3257 	ld	a,l
   08F4 54                 3258 	ld	d,h
   08F5 6F                 3259 	ld	l,a
   08F6 62                 3260 	ld	h,d
                           3261 ;	genAssign (pointer)
   08F7 5D                 3262 	ld	e,l
   08F8 54                 3263 	ld	d,h
   08F9 3E 00              3264 	ld	a,#0x00
   08FB 12                 3265 	ld	(de),a
   08FC 13                 3266 	inc	de
   08FD 3E 00              3267 	ld	a,#0x00
   08FF 12                 3268 	ld	(de),a
                           3269 ;	main.c 270
                           3270 ;	genIpush
                           3271 ; _saveRegsForCall: sendSetSize: 0 deInUse: 0 bcInUse: 0 deSending: 0
   0900 21 00 00           3272 	ld	hl,#_snake_round_sprite
   0903 E5                 3273 	push	hl
                           3274 ;	genIpush
                           3275 ;	AOP_HL for _SNAKE_NTILES
   0904 21 BD 02           3276 	ld	hl,#_SNAKE_NTILES
   0907 7E                 3277 	ld	a,(hl)
   0908 F5                 3278 	push	af
   0909 33                 3279 	inc	sp
                           3280 ;	genIpush
                           3281 ;	AOP_HL for _SNAKE_MEMIND
   090A 21 BC 02           3282 	ld	hl,#_SNAKE_MEMIND
   090D 7E                 3283 	ld	a,(hl)
   090E F5                 3284 	push	af
   090F 33                 3285 	inc	sp
                           3286 ;	genCall
   0910 CD 00 00           3287 	call	_set_sprite_data
   0913 E8 04              3288 	lda	sp,4(sp)
                           3289 ;	main.c 271
                           3290 ;	genIpush
                           3291 ; _saveRegsForCall: sendSetSize: 0 deInUse: 0 bcInUse: 0 deSending: 0
   0915 21 50 00           3292 	ld	hl,#_food
   0918 E5                 3293 	push	hl
                           3294 ;	genIpush
                           3295 ;	AOP_HL for _FOOD_NTILES
   0919 21 C4 02           3296 	ld	hl,#_FOOD_NTILES
   091C 7E                 3297 	ld	a,(hl)
   091D F5                 3298 	push	af
   091E 33                 3299 	inc	sp
                           3300 ;	genIpush
                           3301 ;	AOP_HL for _FOOD_MEMIND
   091F 21 C3 02           3302 	ld	hl,#_FOOD_MEMIND
   0922 7E                 3303 	ld	a,(hl)
   0923 F5                 3304 	push	af
   0924 33                 3305 	inc	sp
                           3306 ;	genCall
   0925 CD 00 00           3307 	call	_set_sprite_data
   0928 E8 04              3308 	lda	sp,4(sp)
                           3309 ;	main.c 274
                           3310 ;	genAddrOf
                           3311 ;	AOP_STK for _main_sloc5_1_0
   092A F8 2F              3312 	lda	hl,47(sp)
   092C 7D                 3313 	ld	a,l
   092D 54                 3314 	ld	d,h
   092E F8 01              3315 	lda	hl,1(sp)
   0930 22                 3316 	ld	(hl+),a
   0931 72                 3317 	ld	(hl),d
                           3318 ;	genPlus
                           3319 ;	AOP_STK for _main_sloc5_1_0
                           3320 ;	AOP_STK for _main_sloc0_1_0
                           3321 ;	genPlusIncr
                           3322 ;	Can't optimise plus by inc, falling back to the normal way
   0932 2B                 3323 	dec	hl
   0933 5E                 3324 	ld	e,(hl)
   0934 23                 3325 	inc	hl
   0935 56                 3326 	ld	d,(hl)
   0936 21 01 00           3327 	ld	hl,#0x0001
   0939 19                 3328 	add	hl,de
   093A 7D                 3329 	ld	a,l
   093B 54                 3330 	ld	d,h
   093C F8 0A              3331 	lda	hl,10(sp)
   093E 22                 3332 	ld	(hl+),a
   093F 72                 3333 	ld	(hl),d
                           3334 ;	genAssign (pointer)
                           3335 ;	AOP_STK for _main_sloc0_1_0
   0940 2B                 3336 	dec	hl
   0941 5E                 3337 	ld	e,(hl)
   0942 23                 3338 	inc	hl
   0943 56                 3339 	ld	d,(hl)
   0944 3E 48              3340 	ld	a,#0x48
   0946 12                 3341 	ld	(de),a
                           3342 ;	main.c 275
                           3343 ;	genPlus
                           3344 ;	AOP_STK for _main_sloc5_1_0
                           3345 ;	AOP_STK for _main_sloc1_1_0
                           3346 ;	genPlusIncr
                           3347 ;	Can't optimise plus by inc, falling back to the normal way
   0947 F8 01              3348 	lda	hl,1(sp)
   0949 5E                 3349 	ld	e,(hl)
   094A 23                 3350 	inc	hl
   094B 56                 3351 	ld	d,(hl)
   094C 21 02 00           3352 	ld	hl,#0x0002
   094F 19                 3353 	add	hl,de
   0950 7D                 3354 	ld	a,l
   0951 54                 3355 	ld	d,h
   0952 F8 08              3356 	lda	hl,8(sp)
   0954 22                 3357 	ld	(hl+),a
   0955 72                 3358 	ld	(hl),d
                           3359 ;	genAssign (pointer)
                           3360 ;	AOP_STK for _main_sloc1_1_0
   0956 2B                 3361 	dec	hl
   0957 5E                 3362 	ld	e,(hl)
   0958 23                 3363 	inc	hl
   0959 56                 3364 	ld	d,(hl)
   095A 3E 32              3365 	ld	a,#0x32
   095C 12                 3366 	ld	(de),a
                           3367 ;	main.c 276
                           3368 ;	genPlus
                           3369 ;	AOP_STK for _main_sloc5_1_0
                           3370 ;	genPlusIncr
                           3371 ;	Can't optimise plus by inc, falling back to the normal way
   095D F8 01              3372 	lda	hl,1(sp)
   095F 5E                 3373 	ld	e,(hl)
   0960 23                 3374 	inc	hl
   0961 56                 3375 	ld	d,(hl)
   0962 21 03 00           3376 	ld	hl,#0x0003
   0965 19                 3377 	add	hl,de
   0966 7D                 3378 	ld	a,l
   0967 54                 3379 	ld	d,h
   0968 6F                 3380 	ld	l,a
   0969 62                 3381 	ld	h,d
                           3382 ;	genAssign (pointer)
   096A 36 08              3383 	ld	(hl),#0x08
                           3384 ;	main.c 277
                           3385 ;	genPlus
                           3386 ;	AOP_STK for _main_sloc5_1_0
                           3387 ;	genPlusIncr
                           3388 ;	Can't optimise plus by inc, falling back to the normal way
   096C F8 01              3389 	lda	hl,1(sp)
   096E 5E                 3390 	ld	e,(hl)
   096F 23                 3391 	inc	hl
   0970 56                 3392 	ld	d,(hl)
   0971 21 04 00           3393 	ld	hl,#0x0004
   0974 19                 3394 	add	hl,de
   0975 7D                 3395 	ld	a,l
   0976 54                 3396 	ld	d,h
   0977 6F                 3397 	ld	l,a
   0978 62                 3398 	ld	h,d
                           3399 ;	genAssign (pointer)
   0979 36 08              3400 	ld	(hl),#0x08
                           3401 ;	main.c 278
                           3402 ;	genAssign (pointer)
                           3403 ;	AOP_STK for _main_sloc5_1_0
   097B F8 01              3404 	lda	hl,1(sp)
   097D 5E                 3405 	ld	e,(hl)
   097E 23                 3406 	inc	hl
   097F 56                 3407 	ld	d,(hl)
   0980 3E 25              3408 	ld	a,#0x25
   0982 12                 3409 	ld	(de),a
                           3410 ;	main.c 279
                           3411 ;	genIpush
                           3412 ; _saveRegsForCall: sendSetSize: 0 deInUse: 0 bcInUse: 0 deSending: 0
                           3413 ;	AOP_HL for _FOOD_BISCUIT
   0983 21 C5 02           3414 	ld	hl,#_FOOD_BISCUIT
   0986 7E                 3415 	ld	a,(hl)
   0987 F5                 3416 	push	af
   0988 33                 3417 	inc	sp
                           3418 ;	genIpush
   0989 3E 25              3419 	ld	a,#0x25
   098B F5                 3420 	push	af
   098C 33                 3421 	inc	sp
                           3422 ;	genCall
   098D CD 00 00           3423 	call	_set_sprite_tile
   0990 E8 02              3424 	lda	sp,2(sp)
                           3425 ;	main.c 280
                           3426 ;	genIpush
                           3427 ; _saveRegsForCall: sendSetSize: 0 deInUse: 0 bcInUse: 0 deSending: 0
                           3428 ;	AOP_HL for _FOOD_CARROT
   0992 21 C6 02           3429 	ld	hl,#_FOOD_CARROT
   0995 7E                 3430 	ld	a,(hl)
   0996 F5                 3431 	push	af
   0997 33                 3432 	inc	sp
                           3433 ;	genIpush
   0998 3E 26              3434 	ld	a,#0x26
   099A F5                 3435 	push	af
   099B 33                 3436 	inc	sp
                           3437 ;	genCall
   099C CD 00 00           3438 	call	_set_sprite_tile
   099F E8 02              3439 	lda	sp,2(sp)
                           3440 ;	main.c 281
                           3441 ;	genIpush
                           3442 ; _saveRegsForCall: sendSetSize: 0 deInUse: 0 bcInUse: 0 deSending: 0
                           3443 ;	AOP_HL for _FOOD_TURNIP
   09A1 21 C7 02           3444 	ld	hl,#_FOOD_TURNIP
   09A4 7E                 3445 	ld	a,(hl)
   09A5 F5                 3446 	push	af
   09A6 33                 3447 	inc	sp
                           3448 ;	genIpush
   09A7 3E 27              3449 	ld	a,#0x27
   09A9 F5                 3450 	push	af
   09AA 33                 3451 	inc	sp
                           3452 ;	genCall
   09AB CD 00 00           3453 	call	_set_sprite_tile
   09AE E8 02              3454 	lda	sp,2(sp)
                           3455 ;	main.c 282
                           3456 ;	genPointerGet
                           3457 ;	AOP_STK for _main_sloc1_1_0
                           3458 ;	AOP_STK for _main_sloc2_1_0
   09B0 F8 08              3459 	lda	hl,8(sp)
   09B2 5E                 3460 	ld	e,(hl)
   09B3 23                 3461 	inc	hl
   09B4 56                 3462 	ld	d,(hl)
   09B5 1A                 3463 	ld	a,(de)
   09B6 2B                 3464 	dec	hl
   09B7 2B                 3465 	dec	hl
   09B8 77                 3466 	ld	(hl),a
                           3467 ;	genPointerGet
                           3468 ;	AOP_STK for _main_sloc0_1_0
                           3469 ;	AOP_STK for _main_sloc1_1_0
   09B9 F8 0A              3470 	lda	hl,10(sp)
   09BB 5E                 3471 	ld	e,(hl)
   09BC 23                 3472 	inc	hl
   09BD 56                 3473 	ld	d,(hl)
   09BE 1A                 3474 	ld	a,(de)
   09BF F8 08              3475 	lda	hl,8(sp)
   09C1 77                 3476 	ld	(hl),a
                           3477 ;	genPointerGet
                           3478 ;	AOP_STK for _main_sloc5_1_0
                           3479 ;	AOP_STK for _main_sloc0_1_0
   09C2 F8 01              3480 	lda	hl,1(sp)
   09C4 5E                 3481 	ld	e,(hl)
   09C5 23                 3482 	inc	hl
   09C6 56                 3483 	ld	d,(hl)
   09C7 1A                 3484 	ld	a,(de)
   09C8 F8 0A              3485 	lda	hl,10(sp)
   09CA 77                 3486 	ld	(hl),a
                           3487 ;	genIpush
                           3488 ; _saveRegsForCall: sendSetSize: 0 deInUse: 0 bcInUse: 0 deSending: 0
                           3489 ;	AOP_STK for _main_sloc2_1_0
   09CB F8 07              3490 	lda	hl,7(sp)
   09CD 7E                 3491 	ld	a,(hl)
   09CE F5                 3492 	push	af
   09CF 33                 3493 	inc	sp
                           3494 ;	genIpush
                           3495 ;	AOP_STK for _main_sloc1_1_0
   09D0 23                 3496 	inc	hl
   09D1 7E                 3497 	ld	a,(hl)
   09D2 F5                 3498 	push	af
   09D3 33                 3499 	inc	sp
                           3500 ;	genIpush
                           3501 ;	AOP_STK for _main_sloc0_1_0
   09D4 23                 3502 	inc	hl
   09D5 23                 3503 	inc	hl
   09D6 7E                 3504 	ld	a,(hl)
   09D7 F5                 3505 	push	af
   09D8 33                 3506 	inc	sp
                           3507 ;	genCall
   09D9 CD 00 00           3508 	call	_move_sprite
   09DC E8 03              3509 	lda	sp,3(sp)
                           3510 ;	main.c 286
                           3511 ;	genAddrOf
                           3512 ;	AOP_STK for _main_sloc1_1_0
   09DE F8 34              3513 	lda	hl,52(sp)
   09E0 7D                 3514 	ld	a,l
   09E1 54                 3515 	ld	d,h
   09E2 F8 08              3516 	lda	hl,8(sp)
   09E4 22                 3517 	ld	(hl+),a
   09E5 72                 3518 	ld	(hl),d
                           3519 ;	genPlus
                           3520 ;	AOP_STK for _main_sloc1_1_0
                           3521 ;	AOP_STK for _main_sloc0_1_0
                           3522 ;	genPlusIncr
                           3523 ;	Can't optimise plus by inc, falling back to the normal way
   09E6 2B                 3524 	dec	hl
   09E7 5E                 3525 	ld	e,(hl)
   09E8 23                 3526 	inc	hl
   09E9 56                 3527 	ld	d,(hl)
   09EA 21 01 00           3528 	ld	hl,#0x0001
   09ED 19                 3529 	add	hl,de
   09EE 7D                 3530 	ld	a,l
   09EF 54                 3531 	ld	d,h
   09F0 F8 0A              3532 	lda	hl,10(sp)
   09F2 22                 3533 	ld	(hl+),a
   09F3 72                 3534 	ld	(hl),d
                           3535 ;	genAssign (pointer)
                           3536 ;	AOP_STK for _main_sloc0_1_0
   09F4 2B                 3537 	dec	hl
   09F5 5E                 3538 	ld	e,(hl)
   09F6 23                 3539 	inc	hl
   09F7 56                 3540 	ld	d,(hl)
   09F8 3E 48              3541 	ld	a,#0x48
   09FA 12                 3542 	ld	(de),a
                           3543 ;	main.c 287
                           3544 ;	genPlus
                           3545 ;	AOP_STK for _main_sloc1_1_0
                           3546 ;	AOP_STK for _main_sloc3_1_0
                           3547 ;	genPlusIncr
                           3548 ;	Can't optimise plus by inc, falling back to the normal way
   09FB F8 08              3549 	lda	hl,8(sp)
   09FD 5E                 3550 	ld	e,(hl)
   09FE 23                 3551 	inc	hl
   09FF 56                 3552 	ld	d,(hl)
   0A00 21 02 00           3553 	ld	hl,#0x0002
   0A03 19                 3554 	add	hl,de
   0A04 7D                 3555 	ld	a,l
   0A05 54                 3556 	ld	d,h
   0A06 F8 05              3557 	lda	hl,5(sp)
   0A08 22                 3558 	ld	(hl+),a
   0A09 72                 3559 	ld	(hl),d
                           3560 ;	genAssign (pointer)
                           3561 ;	AOP_STK for _main_sloc3_1_0
   0A0A 2B                 3562 	dec	hl
   0A0B 5E                 3563 	ld	e,(hl)
   0A0C 23                 3564 	inc	hl
   0A0D 56                 3565 	ld	d,(hl)
   0A0E 3E 48              3566 	ld	a,#0x48
   0A10 12                 3567 	ld	(de),a
                           3568 ;	main.c 288
                           3569 ;	genPlus
                           3570 ;	AOP_STK for _main_sloc1_1_0
                           3571 ;	genPlusIncr
                           3572 ;	Can't optimise plus by inc, falling back to the normal way
   0A11 23                 3573 	inc	hl
   0A12 23                 3574 	inc	hl
   0A13 5E                 3575 	ld	e,(hl)
   0A14 23                 3576 	inc	hl
   0A15 56                 3577 	ld	d,(hl)
   0A16 21 03 00           3578 	ld	hl,#0x0003
   0A19 19                 3579 	add	hl,de
   0A1A 7D                 3580 	ld	a,l
   0A1B 54                 3581 	ld	d,h
   0A1C 6F                 3582 	ld	l,a
   0A1D 62                 3583 	ld	h,d
                           3584 ;	genAssign (pointer)
   0A1E 36 08              3585 	ld	(hl),#0x08
                           3586 ;	main.c 289
                           3587 ;	genPlus
                           3588 ;	AOP_STK for _main_sloc1_1_0
                           3589 ;	genPlusIncr
                           3590 ;	Can't optimise plus by inc, falling back to the normal way
   0A20 F8 08              3591 	lda	hl,8(sp)
   0A22 5E                 3592 	ld	e,(hl)
   0A23 23                 3593 	inc	hl
   0A24 56                 3594 	ld	d,(hl)
   0A25 21 04 00           3595 	ld	hl,#0x0004
   0A28 19                 3596 	add	hl,de
   0A29 7D                 3597 	ld	a,l
   0A2A 54                 3598 	ld	d,h
   0A2B 6F                 3599 	ld	l,a
   0A2C 62                 3600 	ld	h,d
                           3601 ;	genAssign (pointer)
   0A2D 36 08              3602 	ld	(hl),#0x08
                           3603 ;	main.c 290
                           3604 ;	genAssign (pointer)
                           3605 ;	AOP_STK for _main_sloc1_1_0
   0A2F F8 08              3606 	lda	hl,8(sp)
   0A31 5E                 3607 	ld	e,(hl)
   0A32 23                 3608 	inc	hl
   0A33 56                 3609 	ld	d,(hl)
   0A34 3E 00              3610 	ld	a,#0x00
   0A36 12                 3611 	ld	(de),a
                           3612 ;	main.c 291
                           3613 ;	genIpush
                           3614 ; _saveRegsForCall: sendSetSize: 0 deInUse: 0 bcInUse: 0 deSending: 0
                           3615 ;	AOP_HL for _SNAKE_HEAD_UP
   0A37 21 BE 02           3616 	ld	hl,#_SNAKE_HEAD_UP
   0A3A 7E                 3617 	ld	a,(hl)
   0A3B F5                 3618 	push	af
   0A3C 33                 3619 	inc	sp
                           3620 ;	genIpush
   0A3D 3E 00              3621 	ld	a,#0x00
   0A3F F5                 3622 	push	af
   0A40 33                 3623 	inc	sp
                           3624 ;	genCall
   0A41 CD 00 00           3625 	call	_set_sprite_tile
   0A44 E8 02              3626 	lda	sp,2(sp)
                           3627 ;	main.c 292
                           3628 ;	genPointerGet
                           3629 ;	AOP_STK for _main_sloc3_1_0
                           3630 ;	AOP_STK for _main_sloc2_1_0
   0A46 F8 05              3631 	lda	hl,5(sp)
   0A48 5E                 3632 	ld	e,(hl)
   0A49 23                 3633 	inc	hl
   0A4A 56                 3634 	ld	d,(hl)
   0A4B 1A                 3635 	ld	a,(de)
   0A4C 23                 3636 	inc	hl
   0A4D 77                 3637 	ld	(hl),a
                           3638 ;	genPointerGet
                           3639 ;	AOP_STK for _main_sloc0_1_0
                           3640 ;	AOP_STK for _main_sloc3_1_0
   0A4E F8 0A              3641 	lda	hl,10(sp)
   0A50 5E                 3642 	ld	e,(hl)
   0A51 23                 3643 	inc	hl
   0A52 56                 3644 	ld	d,(hl)
   0A53 1A                 3645 	ld	a,(de)
   0A54 F8 05              3646 	lda	hl,5(sp)
   0A56 77                 3647 	ld	(hl),a
                           3648 ;	genPointerGet
                           3649 ;	AOP_STK for _main_sloc1_1_0
                           3650 ;	AOP_STK for _main_sloc0_1_0
   0A57 F8 08              3651 	lda	hl,8(sp)
   0A59 5E                 3652 	ld	e,(hl)
   0A5A 23                 3653 	inc	hl
   0A5B 56                 3654 	ld	d,(hl)
   0A5C 1A                 3655 	ld	a,(de)
   0A5D 23                 3656 	inc	hl
   0A5E 77                 3657 	ld	(hl),a
                           3658 ;	genIpush
                           3659 ; _saveRegsForCall: sendSetSize: 0 deInUse: 0 bcInUse: 0 deSending: 0
                           3660 ;	AOP_STK for _main_sloc2_1_0
   0A5F F8 07              3661 	lda	hl,7(sp)
   0A61 7E                 3662 	ld	a,(hl)
   0A62 F5                 3663 	push	af
   0A63 33                 3664 	inc	sp
                           3665 ;	genIpush
                           3666 ;	AOP_STK for _main_sloc3_1_0
   0A64 2B                 3667 	dec	hl
   0A65 2B                 3668 	dec	hl
   0A66 7E                 3669 	ld	a,(hl)
   0A67 F5                 3670 	push	af
   0A68 33                 3671 	inc	sp
                           3672 ;	genIpush
                           3673 ;	AOP_STK for _main_sloc0_1_0
   0A69 F8 0C              3674 	lda	hl,12(sp)
   0A6B 7E                 3675 	ld	a,(hl)
   0A6C F5                 3676 	push	af
   0A6D 33                 3677 	inc	sp
                           3678 ;	genCall
   0A6E CD 00 00           3679 	call	_move_sprite
   0A71 E8 03              3680 	lda	sp,3(sp)
                           3681 ;	main.c 297
                           3682 ;	genPlus
                           3683 ;	AOP_STK for _main_sloc1_1_0
                           3684 ;	AOP_STK for _main_sloc3_1_0
                           3685 ;	genPlusIncr
                           3686 ;	Can't optimise plus by inc, falling back to the normal way
   0A73 F8 08              3687 	lda	hl,8(sp)
   0A75 5E                 3688 	ld	e,(hl)
   0A76 23                 3689 	inc	hl
   0A77 56                 3690 	ld	d,(hl)
   0A78 21 07 00           3691 	ld	hl,#0x0007
   0A7B 19                 3692 	add	hl,de
   0A7C 7D                 3693 	ld	a,l
   0A7D 54                 3694 	ld	d,h
   0A7E F8 05              3695 	lda	hl,5(sp)
   0A80 22                 3696 	ld	(hl+),a
   0A81 72                 3697 	ld	(hl),d
                           3698 ;	genPlus
                           3699 ;	AOP_STK for _main_sloc1_1_0
                           3700 ;	AOP_STK for _main_sloc0_1_0
                           3701 ;	genPlusIncr
                           3702 ;	Can't optimise plus by inc, falling back to the normal way
   0A82 23                 3703 	inc	hl
   0A83 23                 3704 	inc	hl
   0A84 5E                 3705 	ld	e,(hl)
   0A85 23                 3706 	inc	hl
   0A86 56                 3707 	ld	d,(hl)
   0A87 21 08 00           3708 	ld	hl,#0x0008
   0A8A 19                 3709 	add	hl,de
   0A8B 7D                 3710 	ld	a,l
   0A8C 54                 3711 	ld	d,h
   0A8D F8 0A              3712 	lda	hl,10(sp)
   0A8F 22                 3713 	ld	(hl+),a
   0A90 72                 3714 	ld	(hl),d
                           3715 ;	genAssign (pointer)
                           3716 ;	AOP_STK for _main_sloc0_1_0
   0A91 2B                 3717 	dec	hl
   0A92 5E                 3718 	ld	e,(hl)
   0A93 23                 3719 	inc	hl
   0A94 56                 3720 	ld	d,(hl)
   0A95 3E 48              3721 	ld	a,#0x48
   0A97 12                 3722 	ld	(de),a
                           3723 ;	main.c 298
                           3724 ;	genPlus
                           3725 ;	AOP_STK for _main_sloc1_1_0
                           3726 ;	AOP_STK for _main_sloc4_1_0
                           3727 ;	genPlusIncr
                           3728 ;	Can't optimise plus by inc, falling back to the normal way
   0A98 F8 08              3729 	lda	hl,8(sp)
   0A9A 5E                 3730 	ld	e,(hl)
   0A9B 23                 3731 	inc	hl
   0A9C 56                 3732 	ld	d,(hl)
   0A9D 21 09 00           3733 	ld	hl,#0x0009
   0AA0 19                 3734 	add	hl,de
   0AA1 7D                 3735 	ld	a,l
   0AA2 54                 3736 	ld	d,h
   0AA3 F8 03              3737 	lda	hl,3(sp)
   0AA5 22                 3738 	ld	(hl+),a
   0AA6 72                 3739 	ld	(hl),d
                           3740 ;	genAssign (pointer)
                           3741 ;	AOP_STK for _main_sloc4_1_0
   0AA7 2B                 3742 	dec	hl
   0AA8 5E                 3743 	ld	e,(hl)
   0AA9 23                 3744 	inc	hl
   0AAA 56                 3745 	ld	d,(hl)
   0AAB 3E 50              3746 	ld	a,#0x50
   0AAD 12                 3747 	ld	(de),a
                           3748 ;	main.c 299
                           3749 ;	genPlus
                           3750 ;	AOP_STK for _main_sloc1_1_0
                           3751 ;	genPlusIncr
                           3752 ;	Can't optimise plus by inc, falling back to the normal way
   0AAE F8 08              3753 	lda	hl,8(sp)
   0AB0 5E                 3754 	ld	e,(hl)
   0AB1 23                 3755 	inc	hl
   0AB2 56                 3756 	ld	d,(hl)
   0AB3 21 0A 00           3757 	ld	hl,#0x000A
   0AB6 19                 3758 	add	hl,de
   0AB7 7D                 3759 	ld	a,l
   0AB8 54                 3760 	ld	d,h
   0AB9 6F                 3761 	ld	l,a
   0ABA 62                 3762 	ld	h,d
                           3763 ;	genAssign (pointer)
   0ABB 36 08              3764 	ld	(hl),#0x08
                           3765 ;	main.c 300
                           3766 ;	genPlus
                           3767 ;	AOP_STK for _main_sloc1_1_0
                           3768 ;	genPlusIncr
                           3769 ;	Can't optimise plus by inc, falling back to the normal way
   0ABD F8 08              3770 	lda	hl,8(sp)
   0ABF 5E                 3771 	ld	e,(hl)
   0AC0 23                 3772 	inc	hl
   0AC1 56                 3773 	ld	d,(hl)
   0AC2 21 0B 00           3774 	ld	hl,#0x000B
   0AC5 19                 3775 	add	hl,de
   0AC6 7D                 3776 	ld	a,l
   0AC7 54                 3777 	ld	d,h
   0AC8 6F                 3778 	ld	l,a
   0AC9 62                 3779 	ld	h,d
                           3780 ;	genAssign (pointer)
   0ACA 36 08              3781 	ld	(hl),#0x08
                           3782 ;	main.c 301
                           3783 ;	genAssign (pointer)
                           3784 ;	AOP_STK for _main_sloc3_1_0
   0ACC F8 05              3785 	lda	hl,5(sp)
   0ACE 5E                 3786 	ld	e,(hl)
   0ACF 23                 3787 	inc	hl
   0AD0 56                 3788 	ld	d,(hl)
   0AD1 3E 01              3789 	ld	a,#0x01
   0AD3 12                 3790 	ld	(de),a
                           3791 ;	main.c 302
                           3792 ;	genIpush
                           3793 ; _saveRegsForCall: sendSetSize: 0 deInUse: 0 bcInUse: 0 deSending: 0
                           3794 ;	AOP_HL for _SNAKE_BODY
   0AD4 21 C2 02           3795 	ld	hl,#_SNAKE_BODY
   0AD7 7E                 3796 	ld	a,(hl)
   0AD8 F5                 3797 	push	af
   0AD9 33                 3798 	inc	sp
                           3799 ;	genIpush
   0ADA 3E 01              3800 	ld	a,#0x01
   0ADC F5                 3801 	push	af
   0ADD 33                 3802 	inc	sp
                           3803 ;	genCall
   0ADE CD 00 00           3804 	call	_set_sprite_tile
   0AE1 E8 02              3805 	lda	sp,2(sp)
                           3806 ;	main.c 303
                           3807 ;	genPointerGet
                           3808 ;	AOP_STK for _main_sloc4_1_0
                           3809 ;	AOP_STK for _main_sloc2_1_0
   0AE3 F8 03              3810 	lda	hl,3(sp)
   0AE5 5E                 3811 	ld	e,(hl)
   0AE6 23                 3812 	inc	hl
   0AE7 56                 3813 	ld	d,(hl)
   0AE8 1A                 3814 	ld	a,(de)
   0AE9 F8 07              3815 	lda	hl,7(sp)
   0AEB 77                 3816 	ld	(hl),a
                           3817 ;	genPointerGet
                           3818 ;	AOP_STK for _main_sloc0_1_0
                           3819 ;	AOP_STK for _main_sloc4_1_0
   0AEC F8 0A              3820 	lda	hl,10(sp)
   0AEE 5E                 3821 	ld	e,(hl)
   0AEF 23                 3822 	inc	hl
   0AF0 56                 3823 	ld	d,(hl)
   0AF1 1A                 3824 	ld	a,(de)
   0AF2 F8 03              3825 	lda	hl,3(sp)
                           3826 ;	genPointerGet
                           3827 ;	AOP_STK for _main_sloc3_1_0
                           3828 ;	AOP_STK for _main_sloc0_1_0
   0AF4 22                 3829 	ld	(hl+),a
   0AF5 23                 3830 	inc	hl
   0AF6 5E                 3831 	ld	e,(hl)
   0AF7 23                 3832 	inc	hl
   0AF8 56                 3833 	ld	d,(hl)
   0AF9 1A                 3834 	ld	a,(de)
   0AFA F8 0A              3835 	lda	hl,10(sp)
   0AFC 77                 3836 	ld	(hl),a
                           3837 ;	genIpush
                           3838 ; _saveRegsForCall: sendSetSize: 0 deInUse: 0 bcInUse: 0 deSending: 0
                           3839 ;	AOP_STK for _main_sloc2_1_0
   0AFD F8 07              3840 	lda	hl,7(sp)
   0AFF 7E                 3841 	ld	a,(hl)
   0B00 F5                 3842 	push	af
   0B01 33                 3843 	inc	sp
                           3844 ;	genIpush
                           3845 ;	AOP_STK for _main_sloc4_1_0
   0B02 F8 04              3846 	lda	hl,4(sp)
   0B04 7E                 3847 	ld	a,(hl)
   0B05 F5                 3848 	push	af
   0B06 33                 3849 	inc	sp
                           3850 ;	genIpush
                           3851 ;	AOP_STK for _main_sloc0_1_0
   0B07 F8 0C              3852 	lda	hl,12(sp)
   0B09 7E                 3853 	ld	a,(hl)
   0B0A F5                 3854 	push	af
   0B0B 33                 3855 	inc	sp
                           3856 ;	genCall
   0B0C CD 00 00           3857 	call	_move_sprite
   0B0F E8 03              3858 	lda	sp,3(sp)
                           3859 ;	main.c 304
                           3860 ;	genPlus
                           3861 ;	AOP_STK for _main_sloc1_1_0
                           3862 ;	genPlusIncr
                           3863 ;	Can't optimise plus by inc, falling back to the normal way
   0B11 F8 08              3864 	lda	hl,8(sp)
   0B13 5E                 3865 	ld	e,(hl)
   0B14 23                 3866 	inc	hl
   0B15 56                 3867 	ld	d,(hl)
   0B16 21 05 00           3868 	ld	hl,#0x0005
   0B19 19                 3869 	add	hl,de
   0B1A 7D                 3870 	ld	a,l
   0B1B 54                 3871 	ld	d,h
   0B1C 6F                 3872 	ld	l,a
   0B1D 62                 3873 	ld	h,d
                           3874 ;	genAssign (pointer)
                           3875 ;	AOP_STK for _main_sloc3_1_0
   0B1E 5D                 3876 	ld	e,l
   0B1F 54                 3877 	ld	d,h
   0B20 F8 05              3878 	lda	hl,5(sp)
   0B22 7E                 3879 	ld	a,(hl)
   0B23 12                 3880 	ld	(de),a
   0B24 13                 3881 	inc	de
   0B25 23                 3882 	inc	hl
   0B26 7E                 3883 	ld	a,(hl)
   0B27 12                 3884 	ld	(de),a
                           3885 ;	main.c 305
                           3886 ;	genPlus
                           3887 ;	AOP_STK for _main_sloc3_1_0
                           3888 ;	genPlusIncr
                           3889 ;	Can't optimise plus by inc, falling back to the normal way
   0B28 2B                 3890 	dec	hl
   0B29 5E                 3891 	ld	e,(hl)
   0B2A 23                 3892 	inc	hl
   0B2B 56                 3893 	ld	d,(hl)
   0B2C 21 05 00           3894 	ld	hl,#0x0005
   0B2F 19                 3895 	add	hl,de
   0B30 7D                 3896 	ld	a,l
   0B31 54                 3897 	ld	d,h
   0B32 6F                 3898 	ld	l,a
   0B33 62                 3899 	ld	h,d
                           3900 ;	genAssign (pointer)
   0B34 5D                 3901 	ld	e,l
   0B35 54                 3902 	ld	d,h
   0B36 3E 00              3903 	ld	a,#0x00
   0B38 12                 3904 	ld	(de),a
   0B39 13                 3905 	inc	de
   0B3A 3E 00              3906 	ld	a,#0x00
   0B3C 12                 3907 	ld	(de),a
                           3908 ;	main.c 306
                           3909 ;	genAssign
                           3910 ;	AOP_STK for _main_next_snaketail_sprite_id_1_1
   0B3D F8 10              3911 	lda	hl,16(sp)
   0B3F 36 02              3912 	ld	(hl),#0x02
                           3913 ;	main.c 307
                           3914 ;	genAssign
                           3915 ;	AOP_STK for _main_snake_tail_ind_1_1
   0B41 2B                 3916 	dec	hl
   0B42 36 02              3917 	ld	(hl),#0x02
                           3918 ;	main.c 321
                           3919 ;	genAssign
   0B44 01 40 FF           3920 	ld	bc,#0xFF40
                           3921 ;	genAssign
                           3922 ;	AOP_STK for _main_sloc4_1_0
   0B47 F8 03              3923 	lda	hl,3(sp)
   0B49 36 40              3924 	ld	(hl),#0x40
   0B4B 23                 3925 	inc	hl
   0B4C 36 FF              3926 	ld	(hl),#0xFF
                           3927 ;	genPointerGet
                           3928 ;	AOP_STK for _main_sloc4_1_0
                           3929 ;	AOP_STK for _main_sloc3_1_0
   0B4E 2B                 3930 	dec	hl
   0B4F 5E                 3931 	ld	e,(hl)
   0B50 23                 3932 	inc	hl
   0B51 56                 3933 	ld	d,(hl)
   0B52 1A                 3934 	ld	a,(de)
   0B53 23                 3935 	inc	hl
                           3936 ;	genOr
                           3937 ;	AOP_STK for _main_sloc3_1_0
   0B54 77                 3938 	ld      (hl),a
                           3939 ; Removed redundent load
   0B55 F6 02              3940 	or	a,#0x02
                           3941 ;	genAssign (pointer)
   0B57 02                 3942 	ld	(bc),a
                           3943 ;	main.c 322
                           3944 ;	genAssign
   0B58 01 40 FF           3945 	ld	bc,#0xFF40
                           3946 ;	genAssign
                           3947 ;	AOP_STK for _main_sloc4_1_0
   0B5B 2B                 3948 	dec	hl
   0B5C 2B                 3949 	dec	hl
   0B5D 36 40              3950 	ld	(hl),#0x40
   0B5F 23                 3951 	inc	hl
   0B60 36 FF              3952 	ld	(hl),#0xFF
                           3953 ;	genPointerGet
                           3954 ;	AOP_STK for _main_sloc4_1_0
                           3955 ;	AOP_STK for _main_sloc3_1_0
   0B62 2B                 3956 	dec	hl
   0B63 5E                 3957 	ld	e,(hl)
   0B64 23                 3958 	inc	hl
   0B65 56                 3959 	ld	d,(hl)
   0B66 1A                 3960 	ld	a,(de)
   0B67 23                 3961 	inc	hl
                           3962 ;	genOr
                           3963 ;	AOP_STK for _main_sloc3_1_0
   0B68 77                 3964 	ld      (hl),a
                           3965 ; Removed redundent load
   0B69 F6 01              3966 	or	a,#0x01
                           3967 ;	genAssign (pointer)
   0B6B 02                 3968 	ld	(bc),a
                           3969 ;	main.c 323
                           3970 ;	genAssign
   0B6C 01 40 FF           3971 	ld	bc,#0xFF40
                           3972 ;	genAssign
                           3973 ;	AOP_STK for _main_sloc4_1_0
   0B6F 2B                 3974 	dec	hl
   0B70 2B                 3975 	dec	hl
   0B71 36 40              3976 	ld	(hl),#0x40
   0B73 23                 3977 	inc	hl
   0B74 36 FF              3978 	ld	(hl),#0xFF
                           3979 ;	genPointerGet
                           3980 ;	AOP_STK for _main_sloc4_1_0
                           3981 ;	AOP_STK for _main_sloc3_1_0
   0B76 2B                 3982 	dec	hl
   0B77 5E                 3983 	ld	e,(hl)
   0B78 23                 3984 	inc	hl
   0B79 56                 3985 	ld	d,(hl)
   0B7A 1A                 3986 	ld	a,(de)
   0B7B 23                 3987 	inc	hl
                           3988 ;	genOr
                           3989 ;	AOP_STK for _main_sloc3_1_0
   0B7C 77                 3990 	ld      (hl),a
                           3991 ; Removed redundent load
   0B7D F6 80              3992 	or	a,#0x80
                           3993 ;	genAssign (pointer)
   0B7F 02                 3994 	ld	(bc),a
                           3995 ;	main.c 325
                           3996 ;	genLabel
   0B80                    3997 00135$:
                           3998 ;	genIfx
                           3999 ;	AOP_STK for _main_game_over_1_1
   0B80 AF                 4000 	xor	a,a
   0B81 F8 0E              4001 	lda	hl,14(sp)
   0B83 B6                 4002 	or	a,(hl)
   0B84 C2 09 12           4003 	jp	nz,00137$
                           4004 ;	main.c 326
                           4005 ;	genCall
                           4006 ; _saveRegsForCall: sendSetSize: 0 deInUse: 0 bcInUse: 0 deSending: 0
   0B87 CD 00 00           4007 	call	_joypad
   0B8A 4B                 4008 	ld	c,e
                           4009 ;	genCmpEq
                           4010 ; genCmpEq: left 1, right 1, result 0
   0B8B 79                 4011 	ld	a,c
   0B8C FE 01              4012 	cp	a,#0x01
   0B8E CA 5F 10           4013 	jp	z,00125$
   0B91                    4014 00158$:
                           4015 ;	genCmpEq
                           4016 ; genCmpEq: left 1, right 1, result 0
   0B91 79                 4017 	ld	a,c
   0B92 FE 02              4018 	cp	a,#0x02
   0B94 CA CE 0E           4019 	jp	z,00117$
   0B97                    4020 00159$:
                           4021 ;	genCmpEq
                           4022 ; genCmpEq: left 1, right 1, result 0
   0B97 79                 4023 	ld	a,c
   0B98 FE 04              4024 	cp	a,#0x04
   0B9A CA A6 0B           4025 	jp	z,00101$
   0B9D                    4026 00160$:
                           4027 ;	genCmpEq
                           4028 ; genCmpEq: left 1, right 1, result 0
   0B9D 79                 4029 	ld	a,c
   0B9E FE 08              4030 	cp	a,#0x08
   0BA0 CA 3A 0D           4031 	jp	z,00109$
   0BA3                    4032 00161$:
                           4033 ;	genGoto
   0BA3 C3 F0 11           4034 	jp	00134$
                           4035 ;	main.c 328
                           4036 ;	genLabel
   0BA6                    4037 00101$:
                           4038 ;	genAddrOf
   0BA6 F8 11              4039 	lda	hl,17(sp)
   0BA8 4D                 4040 	ld	c,l
   0BA9 44                 4041 	ld	b,h
                           4042 ;	genAddrOf
                           4043 ;	AOP_STK for _main_sloc4_1_0
   0BAA F8 34              4044 	lda	hl,52(sp)
   0BAC 7D                 4045 	ld	a,l
   0BAD 54                 4046 	ld	d,h
   0BAE F8 03              4047 	lda	hl,3(sp)
   0BB0 22                 4048 	ld	(hl+),a
   0BB1 72                 4049 	ld	(hl),d
                           4050 ;	genIpush
                           4051 ; _saveRegsForCall: sendSetSize: 0 deInUse: 0 bcInUse: 0 deSending: 0
   0BB2 C5                 4052 	push	bc
                           4053 ;	genIpush
   0BB3 21 00 F8           4054 	ld	hl,#0xF800
   0BB6 E5                 4055 	push	hl
                           4056 ;	genIpush
                           4057 ;	AOP_STK for _main_sloc4_1_0
   0BB7 F8 07              4058 	lda	hl,7(sp)
   0BB9 2A                 4059 	ld	a,(hl+)
   0BBA 66                 4060 	ld	h,(hl)
   0BBB 6F                 4061 	ld	l,a
   0BBC E5                 4062 	push	hl
                           4063 ;	genCall
   0BBD CD 6E 04           4064 	call	_move_snake
   0BC0 E8 06              4065 	lda	sp,6(sp)
                           4066 ;	main.c 329
                           4067 ;	genIpush
                           4068 ; _saveRegsForCall: sendSetSize: 0 deInUse: 0 bcInUse: 0 deSending: 0
                           4069 ;	AOP_STK for _main_sloc5_1_0
   0BC2 F8 01              4070 	lda	hl,1(sp)
   0BC4 2A                 4071 	ld	a,(hl+)
   0BC5 66                 4072 	ld	h,(hl)
   0BC6 6F                 4073 	ld	l,a
   0BC7 E5                 4074 	push	hl
                           4075 ;	genIpush
                           4076 ;	AOP_STK for _main_sloc4_1_0
   0BC8 F8 05              4077 	lda	hl,5(sp)
   0BCA 2A                 4078 	ld	a,(hl+)
   0BCB 66                 4079 	ld	h,(hl)
   0BCC 6F                 4080 	ld	l,a
   0BCD E5                 4081 	push	hl
                           4082 ;	genCall
   0BCE CD 82 00           4083 	call	_sprite_collision
   0BD1 4B                 4084 	ld	c,e
   0BD2 E8 04              4085 	lda	sp,4(sp)
                           4086 ;	genIfx
   0BD4 AF                 4087 	xor	a,a
   0BD5 B1                 4088 	or	a,c
   0BD6 CA 22 0D           4089 	jp	z,00107$
                           4090 ;	main.c 330
                           4091 ;	genIpush
                           4092 ; _saveRegsForCall: sendSetSize: 0 deInUse: 0 bcInUse: 0 deSending: 0
                           4093 ;	AOP_STK for _main_sloc4_1_0
   0BD9 F8 03              4094 	lda	hl,3(sp)
   0BDB 2A                 4095 	ld	a,(hl+)
   0BDC 66                 4096 	ld	h,(hl)
   0BDD 6F                 4097 	ld	l,a
   0BDE E5                 4098 	push	hl
                           4099 ;	genIpush
   0BDF 21 F8 08           4100 	ld	hl,#0x08F8
   0BE2 E5                 4101 	push	hl
                           4102 ;	genIpush
                           4103 ;	AOP_STK for _main_sloc5_1_0
   0BE3 F8 05              4104 	lda	hl,5(sp)
   0BE5 2A                 4105 	ld	a,(hl+)
   0BE6 66                 4106 	ld	h,(hl)
   0BE7 6F                 4107 	ld	l,a
   0BE8 E5                 4108 	push	hl
                           4109 ;	genCall
   0BE9 CD 81 07           4110 	call	_movefood
   0BEC E8 06              4111 	lda	sp,6(sp)
                           4112 ;	main.c 331
                           4113 ;	genPlus
                           4114 ;	AOP_STK for _main_score_1_1
                           4115 ;	AOP_STK for _main_score_increment_1_1
                           4116 ;	Can't optimise plus by inc, falling back to the normal way
   0BEE F8 0D              4117 	lda	hl,13(sp)
   0BF0 7E                 4118 	ld	a,(hl)
   0BF1 2B                 4119 	dec	hl
   0BF2 86                 4120 	add	a,(hl)
   0BF3 23                 4121 	inc	hl
                           4122 ;	main.c 332
                           4123 ;	genCmpLt
                           4124 ;	AOP_STK for _main_snake_tail_ind_1_1
   0BF4 22                 4125 	ld	(hl+),a
   0BF5 23                 4126 	inc	hl
   0BF6 7E                 4127 	ld	a,(hl)
   0BF7 FE 25              4128 	cp	#0x25
   0BF9 D2 F0 11           4129 	jp	nc,00134$
                           4130 ;	main.c 333
                           4131 ;	genAddrOf
   0BFC F8 34              4132 	lda	hl,52(sp)
   0BFE 4D                 4133 	ld	c,l
   0BFF 44                 4134 	ld	b,h
                           4135 ;	genMult
                           4136 ;	AOP_STK for _main_snake_tail_ind_1_1
                           4137 ;	AOP_STK for _main_sloc3_1_0
   0C00 F8 0F              4138 	lda	hl,15(sp)
   0C02 5E                 4139 	ld	e,(hl)
   0C03 16 00              4140 	ld	d,#0x00
   0C05 6B                 4141 	ld	l,e
   0C06 62                 4142 	ld	h,d
   0C07 29                 4143 	add	hl,hl
   0C08 19                 4144 	add	hl,de
   0C09 29                 4145 	add	hl,hl
   0C0A 19                 4146 	add	hl,de
   0C0B 7D                 4147 	ld	a,l
   0C0C 54                 4148 	ld	d,h
   0C0D F8 05              4149 	lda	hl,5(sp)
   0C0F 22                 4150 	ld	(hl+),a
   0C10 72                 4151 	ld	(hl),d
                           4152 ;	genPlus
                           4153 ;	AOP_STK for _main_sloc3_1_0
                           4154 ;	AOP_STK for _main_sloc1_1_0
                           4155 ;	Can't optimise plus by inc, falling back to the normal way
   0C11 2B                 4156 	dec	hl
   0C12 2A                 4157 	ld	a,(hl+)
   0C13 66                 4158 	ld	h,(hl)
   0C14 6F                 4159 	ld	l,a
   0C15 09                 4160 	add	hl,bc
   0C16 7D                 4161 	ld	a,l
   0C17 54                 4162 	ld	d,h
   0C18 F8 08              4163 	lda	hl,8(sp)
   0C1A 22                 4164 	ld	(hl+),a
   0C1B 72                 4165 	ld	(hl),d
                           4166 ;	genPlus
                           4167 ;	AOP_STK for _main_sloc1_1_0
                           4168 ;	AOP_STK for _main_sloc3_1_0
                           4169 ;	genPlusIncr
                           4170 ;	Can't optimise plus by inc, falling back to the normal way
   0C1C 2B                 4171 	dec	hl
   0C1D 5E                 4172 	ld	e,(hl)
   0C1E 23                 4173 	inc	hl
   0C1F 56                 4174 	ld	d,(hl)
   0C20 21 01 00           4175 	ld	hl,#0x0001
   0C23 19                 4176 	add	hl,de
   0C24 7D                 4177 	ld	a,l
   0C25 54                 4178 	ld	d,h
   0C26 F8 05              4179 	lda	hl,5(sp)
   0C28 22                 4180 	ld	(hl+),a
   0C29 72                 4181 	ld	(hl),d
                           4182 ;	genMinus
                           4183 ;	AOP_STK for _main_snake_tail_ind_1_1
                           4184 ;	AOP_STK for _main_sloc2_1_0
   0C2A F8 0F              4185 	lda	hl,15(sp)
   0C2C 7E                 4186 	ld	a,(hl)
   0C2D C6 FF              4187 	add	a,#0xFF
   0C2F F8 07              4188 	lda	hl,7(sp)
                           4189 ;	genMult
                           4190 ;	AOP_STK for _main_sloc2_1_0
                           4191 ;	AOP_STK for _main_sloc0_1_0
   0C31 77                 4192 	ld      (hl),a
   0C32 5F                 4193 	ld      e,a
   0C33 16 00              4194 	ld	d,#0x00
   0C35 6B                 4195 	ld	l,e
   0C36 62                 4196 	ld	h,d
   0C37 29                 4197 	add	hl,hl
   0C38 19                 4198 	add	hl,de
   0C39 29                 4199 	add	hl,hl
   0C3A 19                 4200 	add	hl,de
   0C3B 7D                 4201 	ld	a,l
   0C3C 54                 4202 	ld	d,h
   0C3D F8 0A              4203 	lda	hl,10(sp)
   0C3F 22                 4204 	ld	(hl+),a
   0C40 72                 4205 	ld	(hl),d
                           4206 ;	genPlus
                           4207 ;	AOP_STK for _main_sloc0_1_0
                           4208 ;	Can't optimise plus by inc, falling back to the normal way
   0C41 2B                 4209 	dec	hl
   0C42 2A                 4210 	ld	a,(hl+)
   0C43 66                 4211 	ld	h,(hl)
   0C44 6F                 4212 	ld	l,a
   0C45 09                 4213 	add	hl,bc
   0C46 4D                 4214 	ld	c,l
   0C47 44                 4215 	ld	b,h
                           4216 ;	genPlus
                           4217 ;	AOP_STK for _main_sloc0_1_0
                           4218 ;	genPlusIncr
                           4219 ;	Can't optimise plus by inc, falling back to the normal way
   0C48 21 01 00           4220 	ld	hl,#0x0001
   0C4B 09                 4221 	add	hl,bc
   0C4C 7D                 4222 	ld	a,l
   0C4D 54                 4223 	ld	d,h
   0C4E F8 0A              4224 	lda	hl,10(sp)
                           4225 ;	genPointerGet
                           4226 ;	AOP_STK for _main_sloc0_1_0
                           4227 ;	AOP_STK for _main_sloc2_1_0
   0C50 22                 4228 	ld	(hl+),a
   0C51 72                 4229 	ld	(hl),d
   0C52 5F                 4230 	ld	e,a
   0C53 1A                 4231 	ld	a,(de)
   0C54 F8 07              4232 	lda	hl,7(sp)
                           4233 ;	genAssign (pointer)
                           4234 ;	AOP_STK for _main_sloc3_1_0
                           4235 ;	AOP_STK for _main_sloc2_1_0
   0C56 32                 4236 	ld      (hl-),a
   0C57 2B                 4237 	dec	hl
   0C58 5E                 4238 	ld	e,(hl)
   0C59 23                 4239 	inc	hl
   0C5A 56                 4240 	ld	d,(hl)
   0C5B 23                 4241 	inc	hl
   0C5C 7E                 4242 	ld	a,(hl)
   0C5D 12                 4243 	ld	(de),a
                           4244 ;	main.c 334
                           4245 ;	genPlus
                           4246 ;	AOP_STK for _main_sloc1_1_0
                           4247 ;	AOP_STK for _main_sloc3_1_0
                           4248 ;	genPlusIncr
                           4249 ;	Can't optimise plus by inc, falling back to the normal way
   0C5E 23                 4250 	inc	hl
   0C5F 5E                 4251 	ld	e,(hl)
   0C60 23                 4252 	inc	hl
   0C61 56                 4253 	ld	d,(hl)
   0C62 21 02 00           4254 	ld	hl,#0x0002
   0C65 19                 4255 	add	hl,de
   0C66 7D                 4256 	ld	a,l
   0C67 54                 4257 	ld	d,h
   0C68 F8 05              4258 	lda	hl,5(sp)
   0C6A 22                 4259 	ld	(hl+),a
   0C6B 72                 4260 	ld	(hl),d
                           4261 ;	genPlus
                           4262 ;	AOP_STK for _main_sloc0_1_0
                           4263 ;	genPlusIncr
                           4264 ;	Can't optimise plus by inc, falling back to the normal way
   0C6C 21 02 00           4265 	ld	hl,#0x0002
   0C6F 09                 4266 	add	hl,bc
   0C70 7D                 4267 	ld	a,l
   0C71 54                 4268 	ld	d,h
   0C72 F8 0A              4269 	lda	hl,10(sp)
                           4270 ;	genPointerGet
                           4271 ;	AOP_STK for _main_sloc0_1_0
                           4272 ;	AOP_STK for _main_sloc6_1_0
   0C74 22                 4273 	ld	(hl+),a
   0C75 72                 4274 	ld	(hl),d
   0C76 5F                 4275 	ld	e,a
   0C77 1A                 4276 	ld	a,(de)
   0C78 F8 00              4277 	lda	hl,0(sp)
   0C7A 77                 4278 	ld	(hl),a
                           4279 ;	genAssign (pointer)
                           4280 ;	AOP_STK for _main_sloc3_1_0
                           4281 ;	AOP_STK for _main_sloc6_1_0
   0C7B F8 05              4282 	lda	hl,5(sp)
   0C7D 5E                 4283 	ld	e,(hl)
   0C7E 23                 4284 	inc	hl
   0C7F 56                 4285 	ld	d,(hl)
   0C80 F8 00              4286 	lda	hl,0(sp)
   0C82 7E                 4287 	ld	a,(hl)
   0C83 12                 4288 	ld	(de),a
                           4289 ;	main.c 335
                           4290 ;	genPlus
                           4291 ;	AOP_STK for _main_sloc1_1_0
                           4292 ;	AOP_STK for _main_sloc3_1_0
                           4293 ;	genPlusIncr
                           4294 ;	Can't optimise plus by inc, falling back to the normal way
   0C84 F8 08              4295 	lda	hl,8(sp)
   0C86 5E                 4296 	ld	e,(hl)
   0C87 23                 4297 	inc	hl
   0C88 56                 4298 	ld	d,(hl)
   0C89 21 03 00           4299 	ld	hl,#0x0003
   0C8C 19                 4300 	add	hl,de
   0C8D 7D                 4301 	ld	a,l
   0C8E 54                 4302 	ld	d,h
   0C8F F8 05              4303 	lda	hl,5(sp)
   0C91 22                 4304 	ld	(hl+),a
   0C92 72                 4305 	ld	(hl),d
                           4306 ;	genPlus
                           4307 ;	AOP_STK for _main_sloc0_1_0
                           4308 ;	genPlusIncr
                           4309 ;	Can't optimise plus by inc, falling back to the normal way
   0C93 21 03 00           4310 	ld	hl,#0x0003
   0C96 09                 4311 	add	hl,bc
   0C97 7D                 4312 	ld	a,l
   0C98 54                 4313 	ld	d,h
   0C99 F8 0A              4314 	lda	hl,10(sp)
                           4315 ;	genPointerGet
                           4316 ;	AOP_STK for _main_sloc0_1_0
   0C9B 22                 4317 	ld	(hl+),a
   0C9C 72                 4318 	ld	(hl),d
   0C9D 5F                 4319 	ld	e,a
   0C9E 1A                 4320 	ld	a,(de)
                           4321 ;	genAssign (pointer)
                           4322 ;	AOP_STK for _main_sloc3_1_0
   0C9F F8 05              4323 	lda	hl,5(sp)
   0CA1 5E                 4324 	ld	e,(hl)
   0CA2 23                 4325 	inc	hl
   0CA3 56                 4326 	ld	d,(hl)
   0CA4 12                 4327 	ld	(de),a
                           4328 ;	main.c 336
                           4329 ;	genPlus
                           4330 ;	AOP_STK for _main_sloc1_1_0
                           4331 ;	AOP_STK for _main_sloc3_1_0
                           4332 ;	genPlusIncr
                           4333 ;	Can't optimise plus by inc, falling back to the normal way
   0CA5 23                 4334 	inc	hl
   0CA6 23                 4335 	inc	hl
   0CA7 5E                 4336 	ld	e,(hl)
   0CA8 23                 4337 	inc	hl
   0CA9 56                 4338 	ld	d,(hl)
   0CAA 21 04 00           4339 	ld	hl,#0x0004
   0CAD 19                 4340 	add	hl,de
   0CAE 7D                 4341 	ld	a,l
   0CAF 54                 4342 	ld	d,h
   0CB0 F8 05              4343 	lda	hl,5(sp)
   0CB2 22                 4344 	ld	(hl+),a
   0CB3 72                 4345 	ld	(hl),d
                           4346 ;	genPlus
                           4347 ;	AOP_STK for _main_sloc0_1_0
                           4348 ;	genPlusIncr
                           4349 ;	Can't optimise plus by inc, falling back to the normal way
   0CB4 21 04 00           4350 	ld	hl,#0x0004
   0CB7 09                 4351 	add	hl,bc
   0CB8 7D                 4352 	ld	a,l
   0CB9 54                 4353 	ld	d,h
   0CBA F8 0A              4354 	lda	hl,10(sp)
                           4355 ;	genPointerGet
                           4356 ;	AOP_STK for _main_sloc0_1_0
   0CBC 22                 4357 	ld	(hl+),a
   0CBD 72                 4358 	ld	(hl),d
   0CBE 5F                 4359 	ld	e,a
   0CBF 1A                 4360 	ld	a,(de)
                           4361 ;	genAssign (pointer)
                           4362 ;	AOP_STK for _main_sloc3_1_0
   0CC0 F8 05              4363 	lda	hl,5(sp)
   0CC2 5E                 4364 	ld	e,(hl)
   0CC3 23                 4365 	inc	hl
   0CC4 56                 4366 	ld	d,(hl)
   0CC5 12                 4367 	ld	(de),a
                           4368 ;	main.c 337
                           4369 ;	genAssign (pointer)
                           4370 ;	AOP_STK for _main_sloc1_1_0
                           4371 ;	AOP_STK for _main_next_snaketail_sprite_id_1_1
   0CC6 23                 4372 	inc	hl
   0CC7 23                 4373 	inc	hl
   0CC8 5E                 4374 	ld	e,(hl)
   0CC9 23                 4375 	inc	hl
   0CCA 56                 4376 	ld	d,(hl)
   0CCB F8 10              4377 	lda	hl,16(sp)
   0CCD 7E                 4378 	ld	a,(hl)
   0CCE 12                 4379 	ld	(de),a
                           4380 ;	main.c 338
                           4381 ;	genIpush
                           4382 ; _saveRegsForCall: sendSetSize: 0 deInUse: 0 bcInUse: 1 deSending: 0
   0CCF C5                 4383 	push	bc
                           4384 ;	AOP_HL for _SNAKE_BODY
   0CD0 21 C2 02           4385 	ld	hl,#_SNAKE_BODY
   0CD3 7E                 4386 	ld	a,(hl)
   0CD4 F5                 4387 	push	af
   0CD5 33                 4388 	inc	sp
                           4389 ;	genIpush
                           4390 ;	AOP_STK for _main_next_snaketail_sprite_id_1_1
   0CD6 F8 13              4391 	lda	hl,19(sp)
   0CD8 7E                 4392 	ld	a,(hl)
   0CD9 F5                 4393 	push	af
   0CDA 33                 4394 	inc	sp
                           4395 ;	genCall
   0CDB CD 00 00           4396 	call	_set_sprite_tile
   0CDE E8 02              4397 	lda	sp,2(sp)
   0CE0 C1                 4398 	pop	bc
                           4399 ;	main.c 339
                           4400 ;	genIpush
                           4401 ; _saveRegsForCall: sendSetSize: 0 deInUse: 0 bcInUse: 1 deSending: 0
   0CE1 C5                 4402 	push	bc
                           4403 ;	AOP_STK for _main_sloc6_1_0
   0CE2 F8 02              4404 	lda	hl,2(sp)
   0CE4 7E                 4405 	ld	a,(hl)
   0CE5 F5                 4406 	push	af
   0CE6 33                 4407 	inc	sp
                           4408 ;	genIpush
                           4409 ;	AOP_STK for _main_sloc2_1_0
   0CE7 F8 0A              4410 	lda	hl,10(sp)
   0CE9 7E                 4411 	ld	a,(hl)
   0CEA F5                 4412 	push	af
   0CEB 33                 4413 	inc	sp
                           4414 ;	genIpush
                           4415 ;	AOP_STK for _main_next_snaketail_sprite_id_1_1
   0CEC F8 14              4416 	lda	hl,20(sp)
   0CEE 7E                 4417 	ld	a,(hl)
   0CEF F5                 4418 	push	af
   0CF0 33                 4419 	inc	sp
                           4420 ;	genCall
   0CF1 CD 00 00           4421 	call	_move_sprite
   0CF4 E8 03              4422 	lda	sp,3(sp)
   0CF6 C1                 4423 	pop	bc
                           4424 ;	main.c 340
                           4425 ;	genPlus
                           4426 ;	genPlusIncr
   0CF7 21 05 00           4427 	ld	hl,#0x0005
   0CFA 09                 4428 	add	hl,bc
                           4429 ;	genAssign (pointer)
                           4430 ;	AOP_STK for _main_sloc1_1_0
   0CFB 5D                 4431 	ld	e,l
   0CFC 54                 4432 	ld	d,h
   0CFD F8 08              4433 	lda	hl,8(sp)
   0CFF 7E                 4434 	ld	a,(hl)
   0D00 12                 4435 	ld	(de),a
   0D01 13                 4436 	inc	de
   0D02 23                 4437 	inc	hl
   0D03 7E                 4438 	ld	a,(hl)
   0D04 12                 4439 	ld	(de),a
                           4440 ;	main.c 341
                           4441 ;	genPlus
                           4442 ;	AOP_STK for _main_sloc1_1_0
                           4443 ;	genPlusIncr
                           4444 ;	Can't optimise plus by inc, falling back to the normal way
   0D05 2B                 4445 	dec	hl
   0D06 5E                 4446 	ld	e,(hl)
   0D07 23                 4447 	inc	hl
   0D08 56                 4448 	ld	d,(hl)
   0D09 21 05 00           4449 	ld	hl,#0x0005
   0D0C 19                 4450 	add	hl,de
   0D0D 7D                 4451 	ld	a,l
   0D0E 54                 4452 	ld	d,h
   0D0F 6F                 4453 	ld	l,a
   0D10 62                 4454 	ld	h,d
                           4455 ;	genAssign (pointer)
   0D11 5D                 4456 	ld	e,l
   0D12 54                 4457 	ld	d,h
   0D13 3E 00              4458 	ld	a,#0x00
   0D15 12                 4459 	ld	(de),a
   0D16 13                 4460 	inc	de
   0D17 3E 00              4461 	ld	a,#0x00
   0D19 12                 4462 	ld	(de),a
                           4463 ;	main.c 342
                           4464 ;	genPlus
                           4465 ;	AOP_STK for _main_next_snaketail_sprite_id_1_1
                           4466 ;	genPlusIncr
   0D1A F8 10              4467 	lda	hl,16(sp)
   0D1C 34                 4468 	inc	(hl)
                           4469 ;	main.c 343
                           4470 ;	genPlus
                           4471 ;	AOP_STK for _main_snake_tail_ind_1_1
                           4472 ;	genPlusIncr
   0D1D 2B                 4473 	dec	hl
   0D1E 34                 4474 	inc	(hl)
                           4475 ;	genGoto
   0D1F C3 F0 11           4476 	jp	00134$
                           4477 ;	genLabel
   0D22                    4478 00107$:
                           4479 ;	main.c 346
                           4480 ;	genIpush
                           4481 ; _saveRegsForCall: sendSetSize: 0 deInUse: 0 bcInUse: 0 deSending: 0
                           4482 ;	AOP_STK for _main_sloc4_1_0
   0D22 F8 03              4483 	lda	hl,3(sp)
   0D24 2A                 4484 	ld	a,(hl+)
   0D25 66                 4485 	ld	h,(hl)
   0D26 6F                 4486 	ld	l,a
   0D27 E5                 4487 	push	hl
                           4488 ;	genCall
   0D28 CD 1C 02           4489 	call	_head_tail_collision
   0D2B 4B                 4490 	ld	c,e
   0D2C E8 02              4491 	lda	sp,2(sp)
                           4492 ;	genIfx
   0D2E AF                 4493 	xor	a,a
   0D2F B1                 4494 	or	a,c
   0D30 CA F0 11           4495 	jp	z,00134$
                           4496 ;	main.c 348
                           4497 ;	genAssign
                           4498 ;	AOP_STK for _main_game_over_1_1
   0D33 F8 0E              4499 	lda	hl,14(sp)
   0D35 36 01              4500 	ld	(hl),#0x01
                           4501 ;	main.c 351
                           4502 ;	genGoto
   0D37 C3 F0 11           4503 	jp	00134$
                           4504 ;	main.c 354
                           4505 ;	genLabel
   0D3A                    4506 00109$:
                           4507 ;	genAddrOf
   0D3A F8 11              4508 	lda	hl,17(sp)
   0D3C 4D                 4509 	ld	c,l
   0D3D 44                 4510 	ld	b,h
                           4511 ;	genAddrOf
                           4512 ;	AOP_STK for _main_sloc4_1_0
   0D3E F8 34              4513 	lda	hl,52(sp)
   0D40 7D                 4514 	ld	a,l
   0D41 54                 4515 	ld	d,h
   0D42 F8 03              4516 	lda	hl,3(sp)
   0D44 22                 4517 	ld	(hl+),a
   0D45 72                 4518 	ld	(hl),d
                           4519 ;	genIpush
                           4520 ; _saveRegsForCall: sendSetSize: 0 deInUse: 0 bcInUse: 0 deSending: 0
   0D46 C5                 4521 	push	bc
                           4522 ;	genIpush
   0D47 21 00 08           4523 	ld	hl,#0x0800
   0D4A E5                 4524 	push	hl
                           4525 ;	genIpush
                           4526 ;	AOP_STK for _main_sloc4_1_0
   0D4B F8 07              4527 	lda	hl,7(sp)
   0D4D 2A                 4528 	ld	a,(hl+)
   0D4E 66                 4529 	ld	h,(hl)
   0D4F 6F                 4530 	ld	l,a
   0D50 E5                 4531 	push	hl
                           4532 ;	genCall
   0D51 CD 6E 04           4533 	call	_move_snake
   0D54 E8 06              4534 	lda	sp,6(sp)
                           4535 ;	main.c 355
                           4536 ;	genIpush
                           4537 ; _saveRegsForCall: sendSetSize: 0 deInUse: 0 bcInUse: 0 deSending: 0
                           4538 ;	AOP_STK for _main_sloc5_1_0
   0D56 F8 01              4539 	lda	hl,1(sp)
   0D58 2A                 4540 	ld	a,(hl+)
   0D59 66                 4541 	ld	h,(hl)
   0D5A 6F                 4542 	ld	l,a
   0D5B E5                 4543 	push	hl
                           4544 ;	genIpush
                           4545 ;	AOP_STK for _main_sloc4_1_0
   0D5C F8 05              4546 	lda	hl,5(sp)
   0D5E 2A                 4547 	ld	a,(hl+)
   0D5F 66                 4548 	ld	h,(hl)
   0D60 6F                 4549 	ld	l,a
   0D61 E5                 4550 	push	hl
                           4551 ;	genCall
   0D62 CD 82 00           4552 	call	_sprite_collision
   0D65 4B                 4553 	ld	c,e
   0D66 E8 04              4554 	lda	sp,4(sp)
                           4555 ;	genIfx
   0D68 AF                 4556 	xor	a,a
   0D69 B1                 4557 	or	a,c
   0D6A CA B6 0E           4558 	jp	z,00115$
                           4559 ;	main.c 356
                           4560 ;	genIpush
                           4561 ; _saveRegsForCall: sendSetSize: 0 deInUse: 0 bcInUse: 0 deSending: 0
                           4562 ;	AOP_STK for _main_sloc4_1_0
   0D6D F8 03              4563 	lda	hl,3(sp)
   0D6F 2A                 4564 	ld	a,(hl+)
   0D70 66                 4565 	ld	h,(hl)
   0D71 6F                 4566 	ld	l,a
   0D72 E5                 4567 	push	hl
                           4568 ;	genIpush
   0D73 21 08 F8           4569 	ld	hl,#0xF808
   0D76 E5                 4570 	push	hl
                           4571 ;	genIpush
                           4572 ;	AOP_STK for _main_sloc5_1_0
   0D77 F8 05              4573 	lda	hl,5(sp)
   0D79 2A                 4574 	ld	a,(hl+)
   0D7A 66                 4575 	ld	h,(hl)
   0D7B 6F                 4576 	ld	l,a
   0D7C E5                 4577 	push	hl
                           4578 ;	genCall
   0D7D CD 81 07           4579 	call	_movefood
   0D80 E8 06              4580 	lda	sp,6(sp)
                           4581 ;	main.c 357
                           4582 ;	genPlus
                           4583 ;	AOP_STK for _main_score_1_1
                           4584 ;	AOP_STK for _main_score_increment_1_1
                           4585 ;	Can't optimise plus by inc, falling back to the normal way
   0D82 F8 0D              4586 	lda	hl,13(sp)
   0D84 7E                 4587 	ld	a,(hl)
   0D85 2B                 4588 	dec	hl
   0D86 86                 4589 	add	a,(hl)
   0D87 23                 4590 	inc	hl
                           4591 ;	main.c 358
                           4592 ;	genCmpLt
                           4593 ;	AOP_STK for _main_snake_tail_ind_1_1
   0D88 22                 4594 	ld	(hl+),a
   0D89 23                 4595 	inc	hl
   0D8A 7E                 4596 	ld	a,(hl)
   0D8B FE 25              4597 	cp	#0x25
   0D8D D2 F0 11           4598 	jp	nc,00134$
                           4599 ;	main.c 359
                           4600 ;	genAddrOf
   0D90 F8 34              4601 	lda	hl,52(sp)
   0D92 4D                 4602 	ld	c,l
   0D93 44                 4603 	ld	b,h
                           4604 ;	genMult
                           4605 ;	AOP_STK for _main_snake_tail_ind_1_1
                           4606 ;	AOP_STK for _main_sloc3_1_0
   0D94 F8 0F              4607 	lda	hl,15(sp)
   0D96 5E                 4608 	ld	e,(hl)
   0D97 16 00              4609 	ld	d,#0x00
   0D99 6B                 4610 	ld	l,e
   0D9A 62                 4611 	ld	h,d
   0D9B 29                 4612 	add	hl,hl
   0D9C 19                 4613 	add	hl,de
   0D9D 29                 4614 	add	hl,hl
   0D9E 19                 4615 	add	hl,de
   0D9F 7D                 4616 	ld	a,l
   0DA0 54                 4617 	ld	d,h
   0DA1 F8 05              4618 	lda	hl,5(sp)
   0DA3 22                 4619 	ld	(hl+),a
   0DA4 72                 4620 	ld	(hl),d
                           4621 ;	genPlus
                           4622 ;	AOP_STK for _main_sloc3_1_0
                           4623 ;	AOP_STK for _main_sloc1_1_0
                           4624 ;	Can't optimise plus by inc, falling back to the normal way
   0DA5 2B                 4625 	dec	hl
   0DA6 2A                 4626 	ld	a,(hl+)
   0DA7 66                 4627 	ld	h,(hl)
   0DA8 6F                 4628 	ld	l,a
   0DA9 09                 4629 	add	hl,bc
   0DAA 7D                 4630 	ld	a,l
   0DAB 54                 4631 	ld	d,h
   0DAC F8 08              4632 	lda	hl,8(sp)
   0DAE 22                 4633 	ld	(hl+),a
   0DAF 72                 4634 	ld	(hl),d
                           4635 ;	genPlus
                           4636 ;	AOP_STK for _main_sloc1_1_0
                           4637 ;	AOP_STK for _main_sloc3_1_0
                           4638 ;	genPlusIncr
                           4639 ;	Can't optimise plus by inc, falling back to the normal way
   0DB0 2B                 4640 	dec	hl
   0DB1 5E                 4641 	ld	e,(hl)
   0DB2 23                 4642 	inc	hl
   0DB3 56                 4643 	ld	d,(hl)
   0DB4 21 01 00           4644 	ld	hl,#0x0001
   0DB7 19                 4645 	add	hl,de
   0DB8 7D                 4646 	ld	a,l
   0DB9 54                 4647 	ld	d,h
   0DBA F8 05              4648 	lda	hl,5(sp)
   0DBC 22                 4649 	ld	(hl+),a
   0DBD 72                 4650 	ld	(hl),d
                           4651 ;	genMinus
                           4652 ;	AOP_STK for _main_snake_tail_ind_1_1
                           4653 ;	AOP_STK for _main_sloc6_1_0
   0DBE F8 0F              4654 	lda	hl,15(sp)
   0DC0 7E                 4655 	ld	a,(hl)
   0DC1 C6 FF              4656 	add	a,#0xFF
   0DC3 F8 00              4657 	lda	hl,0(sp)
                           4658 ;	genMult
                           4659 ;	AOP_STK for _main_sloc6_1_0
                           4660 ;	AOP_STK for _main_sloc0_1_0
   0DC5 77                 4661 	ld      (hl),a
   0DC6 5F                 4662 	ld      e,a
   0DC7 16 00              4663 	ld	d,#0x00
   0DC9 6B                 4664 	ld	l,e
   0DCA 62                 4665 	ld	h,d
   0DCB 29                 4666 	add	hl,hl
   0DCC 19                 4667 	add	hl,de
   0DCD 29                 4668 	add	hl,hl
   0DCE 19                 4669 	add	hl,de
   0DCF 7D                 4670 	ld	a,l
   0DD0 54                 4671 	ld	d,h
   0DD1 F8 0A              4672 	lda	hl,10(sp)
   0DD3 22                 4673 	ld	(hl+),a
   0DD4 72                 4674 	ld	(hl),d
                           4675 ;	genPlus
                           4676 ;	AOP_STK for _main_sloc0_1_0
                           4677 ;	Can't optimise plus by inc, falling back to the normal way
   0DD5 2B                 4678 	dec	hl
   0DD6 2A                 4679 	ld	a,(hl+)
   0DD7 66                 4680 	ld	h,(hl)
   0DD8 6F                 4681 	ld	l,a
   0DD9 09                 4682 	add	hl,bc
   0DDA 4D                 4683 	ld	c,l
   0DDB 44                 4684 	ld	b,h
                           4685 ;	genPlus
                           4686 ;	AOP_STK for _main_sloc0_1_0
                           4687 ;	genPlusIncr
                           4688 ;	Can't optimise plus by inc, falling back to the normal way
   0DDC 21 01 00           4689 	ld	hl,#0x0001
   0DDF 09                 4690 	add	hl,bc
   0DE0 7D                 4691 	ld	a,l
   0DE1 54                 4692 	ld	d,h
   0DE2 F8 0A              4693 	lda	hl,10(sp)
                           4694 ;	genPointerGet
                           4695 ;	AOP_STK for _main_sloc0_1_0
                           4696 ;	AOP_STK for _main_sloc6_1_0
   0DE4 22                 4697 	ld	(hl+),a
   0DE5 72                 4698 	ld	(hl),d
   0DE6 5F                 4699 	ld	e,a
   0DE7 1A                 4700 	ld	a,(de)
   0DE8 F8 00              4701 	lda	hl,0(sp)
   0DEA 77                 4702 	ld	(hl),a
                           4703 ;	genAssign (pointer)
                           4704 ;	AOP_STK for _main_sloc3_1_0
                           4705 ;	AOP_STK for _main_sloc6_1_0
   0DEB F8 05              4706 	lda	hl,5(sp)
   0DED 5E                 4707 	ld	e,(hl)
   0DEE 23                 4708 	inc	hl
   0DEF 56                 4709 	ld	d,(hl)
   0DF0 F8 00              4710 	lda	hl,0(sp)
   0DF2 7E                 4711 	ld	a,(hl)
   0DF3 12                 4712 	ld	(de),a
                           4713 ;	main.c 360
                           4714 ;	genPlus
                           4715 ;	AOP_STK for _main_sloc1_1_0
                           4716 ;	AOP_STK for _main_sloc3_1_0
                           4717 ;	genPlusIncr
                           4718 ;	Can't optimise plus by inc, falling back to the normal way
   0DF4 F8 08              4719 	lda	hl,8(sp)
   0DF6 5E                 4720 	ld	e,(hl)
   0DF7 23                 4721 	inc	hl
   0DF8 56                 4722 	ld	d,(hl)
   0DF9 21 02 00           4723 	ld	hl,#0x0002
   0DFC 19                 4724 	add	hl,de
   0DFD 7D                 4725 	ld	a,l
   0DFE 54                 4726 	ld	d,h
   0DFF F8 05              4727 	lda	hl,5(sp)
   0E01 22                 4728 	ld	(hl+),a
   0E02 72                 4729 	ld	(hl),d
                           4730 ;	genPlus
                           4731 ;	AOP_STK for _main_sloc0_1_0
                           4732 ;	genPlusIncr
                           4733 ;	Can't optimise plus by inc, falling back to the normal way
   0E03 21 02 00           4734 	ld	hl,#0x0002
   0E06 09                 4735 	add	hl,bc
   0E07 7D                 4736 	ld	a,l
   0E08 54                 4737 	ld	d,h
   0E09 F8 0A              4738 	lda	hl,10(sp)
                           4739 ;	genPointerGet
                           4740 ;	AOP_STK for _main_sloc0_1_0
                           4741 ;	AOP_STK for _main_sloc2_1_0
   0E0B 22                 4742 	ld	(hl+),a
   0E0C 72                 4743 	ld	(hl),d
   0E0D 5F                 4744 	ld	e,a
   0E0E 1A                 4745 	ld	a,(de)
   0E0F F8 07              4746 	lda	hl,7(sp)
                           4747 ;	genAssign (pointer)
                           4748 ;	AOP_STK for _main_sloc3_1_0
                           4749 ;	AOP_STK for _main_sloc2_1_0
   0E11 32                 4750 	ld      (hl-),a
   0E12 2B                 4751 	dec	hl
   0E13 5E                 4752 	ld	e,(hl)
   0E14 23                 4753 	inc	hl
   0E15 56                 4754 	ld	d,(hl)
   0E16 23                 4755 	inc	hl
   0E17 7E                 4756 	ld	a,(hl)
   0E18 12                 4757 	ld	(de),a
                           4758 ;	main.c 361
                           4759 ;	genPlus
                           4760 ;	AOP_STK for _main_sloc1_1_0
                           4761 ;	AOP_STK for _main_sloc3_1_0
                           4762 ;	genPlusIncr
                           4763 ;	Can't optimise plus by inc, falling back to the normal way
   0E19 23                 4764 	inc	hl
   0E1A 5E                 4765 	ld	e,(hl)
   0E1B 23                 4766 	inc	hl
   0E1C 56                 4767 	ld	d,(hl)
   0E1D 21 03 00           4768 	ld	hl,#0x0003
   0E20 19                 4769 	add	hl,de
   0E21 7D                 4770 	ld	a,l
   0E22 54                 4771 	ld	d,h
   0E23 F8 05              4772 	lda	hl,5(sp)
   0E25 22                 4773 	ld	(hl+),a
   0E26 72                 4774 	ld	(hl),d
                           4775 ;	genPlus
                           4776 ;	AOP_STK for _main_sloc0_1_0
                           4777 ;	genPlusIncr
                           4778 ;	Can't optimise plus by inc, falling back to the normal way
   0E27 21 03 00           4779 	ld	hl,#0x0003
   0E2A 09                 4780 	add	hl,bc
   0E2B 7D                 4781 	ld	a,l
   0E2C 54                 4782 	ld	d,h
   0E2D F8 0A              4783 	lda	hl,10(sp)
                           4784 ;	genPointerGet
                           4785 ;	AOP_STK for _main_sloc0_1_0
   0E2F 22                 4786 	ld	(hl+),a
   0E30 72                 4787 	ld	(hl),d
   0E31 5F                 4788 	ld	e,a
   0E32 1A                 4789 	ld	a,(de)
                           4790 ;	genAssign (pointer)
                           4791 ;	AOP_STK for _main_sloc3_1_0
   0E33 F8 05              4792 	lda	hl,5(sp)
   0E35 5E                 4793 	ld	e,(hl)
   0E36 23                 4794 	inc	hl
   0E37 56                 4795 	ld	d,(hl)
   0E38 12                 4796 	ld	(de),a
                           4797 ;	main.c 362
                           4798 ;	genPlus
                           4799 ;	AOP_STK for _main_sloc1_1_0
                           4800 ;	AOP_STK for _main_sloc3_1_0
                           4801 ;	genPlusIncr
                           4802 ;	Can't optimise plus by inc, falling back to the normal way
   0E39 23                 4803 	inc	hl
   0E3A 23                 4804 	inc	hl
   0E3B 5E                 4805 	ld	e,(hl)
   0E3C 23                 4806 	inc	hl
   0E3D 56                 4807 	ld	d,(hl)
   0E3E 21 04 00           4808 	ld	hl,#0x0004
   0E41 19                 4809 	add	hl,de
   0E42 7D                 4810 	ld	a,l
   0E43 54                 4811 	ld	d,h
   0E44 F8 05              4812 	lda	hl,5(sp)
   0E46 22                 4813 	ld	(hl+),a
   0E47 72                 4814 	ld	(hl),d
                           4815 ;	genPlus
                           4816 ;	AOP_STK for _main_sloc0_1_0
                           4817 ;	genPlusIncr
                           4818 ;	Can't optimise plus by inc, falling back to the normal way
   0E48 21 04 00           4819 	ld	hl,#0x0004
   0E4B 09                 4820 	add	hl,bc
   0E4C 7D                 4821 	ld	a,l
   0E4D 54                 4822 	ld	d,h
   0E4E F8 0A              4823 	lda	hl,10(sp)
                           4824 ;	genPointerGet
                           4825 ;	AOP_STK for _main_sloc0_1_0
   0E50 22                 4826 	ld	(hl+),a
   0E51 72                 4827 	ld	(hl),d
   0E52 5F                 4828 	ld	e,a
   0E53 1A                 4829 	ld	a,(de)
                           4830 ;	genAssign (pointer)
                           4831 ;	AOP_STK for _main_sloc3_1_0
   0E54 F8 05              4832 	lda	hl,5(sp)
   0E56 5E                 4833 	ld	e,(hl)
   0E57 23                 4834 	inc	hl
   0E58 56                 4835 	ld	d,(hl)
   0E59 12                 4836 	ld	(de),a
                           4837 ;	main.c 363
                           4838 ;	genAssign (pointer)
                           4839 ;	AOP_STK for _main_sloc1_1_0
                           4840 ;	AOP_STK for _main_next_snaketail_sprite_id_1_1
   0E5A 23                 4841 	inc	hl
   0E5B 23                 4842 	inc	hl
   0E5C 5E                 4843 	ld	e,(hl)
   0E5D 23                 4844 	inc	hl
   0E5E 56                 4845 	ld	d,(hl)
   0E5F F8 10              4846 	lda	hl,16(sp)
   0E61 7E                 4847 	ld	a,(hl)
   0E62 12                 4848 	ld	(de),a
                           4849 ;	main.c 364
                           4850 ;	genIpush
                           4851 ; _saveRegsForCall: sendSetSize: 0 deInUse: 0 bcInUse: 1 deSending: 0
   0E63 C5                 4852 	push	bc
                           4853 ;	AOP_HL for _SNAKE_BODY
   0E64 21 C2 02           4854 	ld	hl,#_SNAKE_BODY
   0E67 7E                 4855 	ld	a,(hl)
   0E68 F5                 4856 	push	af
   0E69 33                 4857 	inc	sp
                           4858 ;	genIpush
                           4859 ;	AOP_STK for _main_next_snaketail_sprite_id_1_1
   0E6A F8 13              4860 	lda	hl,19(sp)
   0E6C 7E                 4861 	ld	a,(hl)
   0E6D F5                 4862 	push	af
   0E6E 33                 4863 	inc	sp
                           4864 ;	genCall
   0E6F CD 00 00           4865 	call	_set_sprite_tile
   0E72 E8 02              4866 	lda	sp,2(sp)
   0E74 C1                 4867 	pop	bc
                           4868 ;	main.c 365
                           4869 ;	genIpush
                           4870 ; _saveRegsForCall: sendSetSize: 0 deInUse: 0 bcInUse: 1 deSending: 0
   0E75 C5                 4871 	push	bc
                           4872 ;	AOP_STK for _main_sloc2_1_0
   0E76 F8 09              4873 	lda	hl,9(sp)
   0E78 7E                 4874 	ld	a,(hl)
   0E79 F5                 4875 	push	af
   0E7A 33                 4876 	inc	sp
                           4877 ;	genIpush
                           4878 ;	AOP_STK for _main_sloc6_1_0
   0E7B F8 03              4879 	lda	hl,3(sp)
   0E7D 7E                 4880 	ld	a,(hl)
   0E7E F5                 4881 	push	af
   0E7F 33                 4882 	inc	sp
                           4883 ;	genIpush
                           4884 ;	AOP_STK for _main_next_snaketail_sprite_id_1_1
   0E80 F8 14              4885 	lda	hl,20(sp)
   0E82 7E                 4886 	ld	a,(hl)
   0E83 F5                 4887 	push	af
   0E84 33                 4888 	inc	sp
                           4889 ;	genCall
   0E85 CD 00 00           4890 	call	_move_sprite
   0E88 E8 03              4891 	lda	sp,3(sp)
   0E8A C1                 4892 	pop	bc
                           4893 ;	main.c 366
                           4894 ;	genPlus
                           4895 ;	genPlusIncr
   0E8B 21 05 00           4896 	ld	hl,#0x0005
   0E8E 09                 4897 	add	hl,bc
                           4898 ;	genAssign (pointer)
                           4899 ;	AOP_STK for _main_sloc1_1_0
   0E8F 5D                 4900 	ld	e,l
   0E90 54                 4901 	ld	d,h
   0E91 F8 08              4902 	lda	hl,8(sp)
   0E93 7E                 4903 	ld	a,(hl)
   0E94 12                 4904 	ld	(de),a
   0E95 13                 4905 	inc	de
   0E96 23                 4906 	inc	hl
   0E97 7E                 4907 	ld	a,(hl)
   0E98 12                 4908 	ld	(de),a
                           4909 ;	main.c 367
                           4910 ;	genPlus
                           4911 ;	AOP_STK for _main_sloc1_1_0
                           4912 ;	genPlusIncr
                           4913 ;	Can't optimise plus by inc, falling back to the normal way
   0E99 2B                 4914 	dec	hl
   0E9A 5E                 4915 	ld	e,(hl)
   0E9B 23                 4916 	inc	hl
   0E9C 56                 4917 	ld	d,(hl)
   0E9D 21 05 00           4918 	ld	hl,#0x0005
   0EA0 19                 4919 	add	hl,de
   0EA1 7D                 4920 	ld	a,l
   0EA2 54                 4921 	ld	d,h
   0EA3 6F                 4922 	ld	l,a
   0EA4 62                 4923 	ld	h,d
                           4924 ;	genAssign (pointer)
   0EA5 5D                 4925 	ld	e,l
   0EA6 54                 4926 	ld	d,h
   0EA7 3E 00              4927 	ld	a,#0x00
   0EA9 12                 4928 	ld	(de),a
   0EAA 13                 4929 	inc	de
   0EAB 3E 00              4930 	ld	a,#0x00
   0EAD 12                 4931 	ld	(de),a
                           4932 ;	main.c 368
                           4933 ;	genPlus
                           4934 ;	AOP_STK for _main_next_snaketail_sprite_id_1_1
                           4935 ;	genPlusIncr
   0EAE F8 10              4936 	lda	hl,16(sp)
   0EB0 34                 4937 	inc	(hl)
                           4938 ;	main.c 369
                           4939 ;	genPlus
                           4940 ;	AOP_STK for _main_snake_tail_ind_1_1
                           4941 ;	genPlusIncr
   0EB1 2B                 4942 	dec	hl
   0EB2 34                 4943 	inc	(hl)
                           4944 ;	genGoto
   0EB3 C3 F0 11           4945 	jp	00134$
                           4946 ;	genLabel
   0EB6                    4947 00115$:
                           4948 ;	main.c 372
                           4949 ;	genIpush
                           4950 ; _saveRegsForCall: sendSetSize: 0 deInUse: 0 bcInUse: 0 deSending: 0
                           4951 ;	AOP_STK for _main_sloc4_1_0
   0EB6 F8 03              4952 	lda	hl,3(sp)
   0EB8 2A                 4953 	ld	a,(hl+)
   0EB9 66                 4954 	ld	h,(hl)
   0EBA 6F                 4955 	ld	l,a
   0EBB E5                 4956 	push	hl
                           4957 ;	genCall
   0EBC CD 1C 02           4958 	call	_head_tail_collision
   0EBF 4B                 4959 	ld	c,e
   0EC0 E8 02              4960 	lda	sp,2(sp)
                           4961 ;	genIfx
   0EC2 AF                 4962 	xor	a,a
   0EC3 B1                 4963 	or	a,c
   0EC4 CA F0 11           4964 	jp	z,00134$
                           4965 ;	main.c 374
                           4966 ;	genAssign
                           4967 ;	AOP_STK for _main_game_over_1_1
   0EC7 F8 0E              4968 	lda	hl,14(sp)
   0EC9 36 01              4969 	ld	(hl),#0x01
                           4970 ;	main.c 377
                           4971 ;	genGoto
   0ECB C3 F0 11           4972 	jp	00134$
                           4973 ;	main.c 380
                           4974 ;	genLabel
   0ECE                    4975 00117$:
                           4976 ;	genAddrOf
   0ECE F8 11              4977 	lda	hl,17(sp)
   0ED0 4D                 4978 	ld	c,l
   0ED1 44                 4979 	ld	b,h
                           4980 ;	genAddrOf
                           4981 ;	AOP_STK for _main_sloc4_1_0
   0ED2 F8 34              4982 	lda	hl,52(sp)
   0ED4 7D                 4983 	ld	a,l
   0ED5 54                 4984 	ld	d,h
   0ED6 F8 03              4985 	lda	hl,3(sp)
   0ED8 22                 4986 	ld	(hl+),a
   0ED9 72                 4987 	ld	(hl),d
                           4988 ;	genIpush
                           4989 ; _saveRegsForCall: sendSetSize: 0 deInUse: 0 bcInUse: 0 deSending: 0
   0EDA C5                 4990 	push	bc
                           4991 ;	genIpush
   0EDB 21 F8 00           4992 	ld	hl,#0x00F8
   0EDE E5                 4993 	push	hl
                           4994 ;	genIpush
                           4995 ;	AOP_STK for _main_sloc4_1_0
   0EDF F8 07              4996 	lda	hl,7(sp)
   0EE1 2A                 4997 	ld	a,(hl+)
   0EE2 66                 4998 	ld	h,(hl)
   0EE3 6F                 4999 	ld	l,a
   0EE4 E5                 5000 	push	hl
                           5001 ;	genCall
   0EE5 CD 6E 04           5002 	call	_move_snake
   0EE8 E8 06              5003 	lda	sp,6(sp)
                           5004 ;	main.c 381
                           5005 ;	genIpush
                           5006 ; _saveRegsForCall: sendSetSize: 0 deInUse: 0 bcInUse: 0 deSending: 0
                           5007 ;	AOP_STK for _main_sloc5_1_0
   0EEA F8 01              5008 	lda	hl,1(sp)
   0EEC 2A                 5009 	ld	a,(hl+)
   0EED 66                 5010 	ld	h,(hl)
   0EEE 6F                 5011 	ld	l,a
   0EEF E5                 5012 	push	hl
                           5013 ;	genIpush
                           5014 ;	AOP_STK for _main_sloc4_1_0
   0EF0 F8 05              5015 	lda	hl,5(sp)
   0EF2 2A                 5016 	ld	a,(hl+)
   0EF3 66                 5017 	ld	h,(hl)
   0EF4 6F                 5018 	ld	l,a
   0EF5 E5                 5019 	push	hl
                           5020 ;	genCall
   0EF6 CD 82 00           5021 	call	_sprite_collision
   0EF9 4B                 5022 	ld	c,e
   0EFA E8 04              5023 	lda	sp,4(sp)
                           5024 ;	genIfx
   0EFC AF                 5025 	xor	a,a
   0EFD B1                 5026 	or	a,c
   0EFE CA 47 10           5027 	jp	z,00123$
                           5028 ;	main.c 383
                           5029 ;	genIpush
                           5030 ; _saveRegsForCall: sendSetSize: 0 deInUse: 0 bcInUse: 0 deSending: 0
                           5031 ;	AOP_STK for _main_sloc4_1_0
   0F01 F8 03              5032 	lda	hl,3(sp)
   0F03 2A                 5033 	ld	a,(hl+)
   0F04 66                 5034 	ld	h,(hl)
   0F05 6F                 5035 	ld	l,a
   0F06 E5                 5036 	push	hl
                           5037 ;	genIpush
   0F07 21 08 08           5038 	ld	hl,#0x0808
   0F0A E5                 5039 	push	hl
                           5040 ;	genIpush
                           5041 ;	AOP_STK for _main_sloc5_1_0
   0F0B F8 05              5042 	lda	hl,5(sp)
   0F0D 2A                 5043 	ld	a,(hl+)
   0F0E 66                 5044 	ld	h,(hl)
   0F0F 6F                 5045 	ld	l,a
   0F10 E5                 5046 	push	hl
                           5047 ;	genCall
   0F11 CD 81 07           5048 	call	_movefood
   0F14 E8 06              5049 	lda	sp,6(sp)
                           5050 ;	main.c 384
                           5051 ;	genPlus
                           5052 ;	AOP_STK for _main_score_1_1
                           5053 ;	genPlusIncr
   0F16 F8 0D              5054 	lda	hl,13(sp)
   0F18 34                 5055 	inc	(hl)
                           5056 ;	main.c 385
                           5057 ;	genCmpLt
                           5058 ;	AOP_STK for _main_snake_tail_ind_1_1
   0F19 23                 5059 	inc	hl
   0F1A 23                 5060 	inc	hl
   0F1B 7E                 5061 	ld	a,(hl)
   0F1C FE 25              5062 	cp	#0x25
   0F1E D2 F0 11           5063 	jp	nc,00134$
                           5064 ;	main.c 386
                           5065 ;	genAddrOf
   0F21 F8 34              5066 	lda	hl,52(sp)
   0F23 4D                 5067 	ld	c,l
   0F24 44                 5068 	ld	b,h
                           5069 ;	genMult
                           5070 ;	AOP_STK for _main_snake_tail_ind_1_1
                           5071 ;	AOP_STK for _main_sloc3_1_0
   0F25 F8 0F              5072 	lda	hl,15(sp)
   0F27 5E                 5073 	ld	e,(hl)
   0F28 16 00              5074 	ld	d,#0x00
   0F2A 6B                 5075 	ld	l,e
   0F2B 62                 5076 	ld	h,d
   0F2C 29                 5077 	add	hl,hl
   0F2D 19                 5078 	add	hl,de
   0F2E 29                 5079 	add	hl,hl
   0F2F 19                 5080 	add	hl,de
   0F30 7D                 5081 	ld	a,l
   0F31 54                 5082 	ld	d,h
   0F32 F8 05              5083 	lda	hl,5(sp)
   0F34 22                 5084 	ld	(hl+),a
   0F35 72                 5085 	ld	(hl),d
                           5086 ;	genPlus
                           5087 ;	AOP_STK for _main_sloc3_1_0
                           5088 ;	AOP_STK for _main_sloc1_1_0
                           5089 ;	Can't optimise plus by inc, falling back to the normal way
   0F36 2B                 5090 	dec	hl
   0F37 2A                 5091 	ld	a,(hl+)
   0F38 66                 5092 	ld	h,(hl)
   0F39 6F                 5093 	ld	l,a
   0F3A 09                 5094 	add	hl,bc
   0F3B 7D                 5095 	ld	a,l
   0F3C 54                 5096 	ld	d,h
   0F3D F8 08              5097 	lda	hl,8(sp)
   0F3F 22                 5098 	ld	(hl+),a
   0F40 72                 5099 	ld	(hl),d
                           5100 ;	genPlus
                           5101 ;	AOP_STK for _main_sloc1_1_0
                           5102 ;	AOP_STK for _main_sloc3_1_0
                           5103 ;	genPlusIncr
                           5104 ;	Can't optimise plus by inc, falling back to the normal way
   0F41 2B                 5105 	dec	hl
   0F42 5E                 5106 	ld	e,(hl)
   0F43 23                 5107 	inc	hl
   0F44 56                 5108 	ld	d,(hl)
   0F45 21 01 00           5109 	ld	hl,#0x0001
   0F48 19                 5110 	add	hl,de
   0F49 7D                 5111 	ld	a,l
   0F4A 54                 5112 	ld	d,h
   0F4B F8 05              5113 	lda	hl,5(sp)
   0F4D 22                 5114 	ld	(hl+),a
   0F4E 72                 5115 	ld	(hl),d
                           5116 ;	genMinus
                           5117 ;	AOP_STK for _main_snake_tail_ind_1_1
                           5118 ;	AOP_STK for _main_sloc6_1_0
   0F4F F8 0F              5119 	lda	hl,15(sp)
   0F51 7E                 5120 	ld	a,(hl)
   0F52 C6 FF              5121 	add	a,#0xFF
   0F54 F8 00              5122 	lda	hl,0(sp)
                           5123 ;	genMult
                           5124 ;	AOP_STK for _main_sloc6_1_0
                           5125 ;	AOP_STK for _main_sloc0_1_0
   0F56 77                 5126 	ld      (hl),a
   0F57 5F                 5127 	ld      e,a
   0F58 16 00              5128 	ld	d,#0x00
   0F5A 6B                 5129 	ld	l,e
   0F5B 62                 5130 	ld	h,d
   0F5C 29                 5131 	add	hl,hl
   0F5D 19                 5132 	add	hl,de
   0F5E 29                 5133 	add	hl,hl
   0F5F 19                 5134 	add	hl,de
   0F60 7D                 5135 	ld	a,l
   0F61 54                 5136 	ld	d,h
   0F62 F8 0A              5137 	lda	hl,10(sp)
   0F64 22                 5138 	ld	(hl+),a
   0F65 72                 5139 	ld	(hl),d
                           5140 ;	genPlus
                           5141 ;	AOP_STK for _main_sloc0_1_0
                           5142 ;	Can't optimise plus by inc, falling back to the normal way
   0F66 2B                 5143 	dec	hl
   0F67 2A                 5144 	ld	a,(hl+)
   0F68 66                 5145 	ld	h,(hl)
   0F69 6F                 5146 	ld	l,a
   0F6A 09                 5147 	add	hl,bc
   0F6B 4D                 5148 	ld	c,l
   0F6C 44                 5149 	ld	b,h
                           5150 ;	genPlus
                           5151 ;	AOP_STK for _main_sloc0_1_0
                           5152 ;	genPlusIncr
                           5153 ;	Can't optimise plus by inc, falling back to the normal way
   0F6D 21 01 00           5154 	ld	hl,#0x0001
   0F70 09                 5155 	add	hl,bc
   0F71 7D                 5156 	ld	a,l
   0F72 54                 5157 	ld	d,h
   0F73 F8 0A              5158 	lda	hl,10(sp)
                           5159 ;	genPointerGet
                           5160 ;	AOP_STK for _main_sloc0_1_0
                           5161 ;	AOP_STK for _main_sloc6_1_0
   0F75 22                 5162 	ld	(hl+),a
   0F76 72                 5163 	ld	(hl),d
   0F77 5F                 5164 	ld	e,a
   0F78 1A                 5165 	ld	a,(de)
   0F79 F8 00              5166 	lda	hl,0(sp)
   0F7B 77                 5167 	ld	(hl),a
                           5168 ;	genAssign (pointer)
                           5169 ;	AOP_STK for _main_sloc3_1_0
                           5170 ;	AOP_STK for _main_sloc6_1_0
   0F7C F8 05              5171 	lda	hl,5(sp)
   0F7E 5E                 5172 	ld	e,(hl)
   0F7F 23                 5173 	inc	hl
   0F80 56                 5174 	ld	d,(hl)
   0F81 F8 00              5175 	lda	hl,0(sp)
   0F83 7E                 5176 	ld	a,(hl)
   0F84 12                 5177 	ld	(de),a
                           5178 ;	main.c 387
                           5179 ;	genPlus
                           5180 ;	AOP_STK for _main_sloc1_1_0
                           5181 ;	AOP_STK for _main_sloc3_1_0
                           5182 ;	genPlusIncr
                           5183 ;	Can't optimise plus by inc, falling back to the normal way
   0F85 F8 08              5184 	lda	hl,8(sp)
   0F87 5E                 5185 	ld	e,(hl)
   0F88 23                 5186 	inc	hl
   0F89 56                 5187 	ld	d,(hl)
   0F8A 21 02 00           5188 	ld	hl,#0x0002
   0F8D 19                 5189 	add	hl,de
   0F8E 7D                 5190 	ld	a,l
   0F8F 54                 5191 	ld	d,h
   0F90 F8 05              5192 	lda	hl,5(sp)
   0F92 22                 5193 	ld	(hl+),a
   0F93 72                 5194 	ld	(hl),d
                           5195 ;	genPlus
                           5196 ;	AOP_STK for _main_sloc0_1_0
                           5197 ;	genPlusIncr
                           5198 ;	Can't optimise plus by inc, falling back to the normal way
   0F94 21 02 00           5199 	ld	hl,#0x0002
   0F97 09                 5200 	add	hl,bc
   0F98 7D                 5201 	ld	a,l
   0F99 54                 5202 	ld	d,h
   0F9A F8 0A              5203 	lda	hl,10(sp)
                           5204 ;	genPointerGet
                           5205 ;	AOP_STK for _main_sloc0_1_0
                           5206 ;	AOP_STK for _main_sloc2_1_0
   0F9C 22                 5207 	ld	(hl+),a
   0F9D 72                 5208 	ld	(hl),d
   0F9E 5F                 5209 	ld	e,a
   0F9F 1A                 5210 	ld	a,(de)
   0FA0 F8 07              5211 	lda	hl,7(sp)
                           5212 ;	genAssign (pointer)
                           5213 ;	AOP_STK for _main_sloc3_1_0
                           5214 ;	AOP_STK for _main_sloc2_1_0
   0FA2 32                 5215 	ld      (hl-),a
   0FA3 2B                 5216 	dec	hl
   0FA4 5E                 5217 	ld	e,(hl)
   0FA5 23                 5218 	inc	hl
   0FA6 56                 5219 	ld	d,(hl)
   0FA7 23                 5220 	inc	hl
   0FA8 7E                 5221 	ld	a,(hl)
   0FA9 12                 5222 	ld	(de),a
                           5223 ;	main.c 388
                           5224 ;	genPlus
                           5225 ;	AOP_STK for _main_sloc1_1_0
                           5226 ;	AOP_STK for _main_sloc3_1_0
                           5227 ;	genPlusIncr
                           5228 ;	Can't optimise plus by inc, falling back to the normal way
   0FAA 23                 5229 	inc	hl
   0FAB 5E                 5230 	ld	e,(hl)
   0FAC 23                 5231 	inc	hl
   0FAD 56                 5232 	ld	d,(hl)
   0FAE 21 03 00           5233 	ld	hl,#0x0003
   0FB1 19                 5234 	add	hl,de
   0FB2 7D                 5235 	ld	a,l
   0FB3 54                 5236 	ld	d,h
   0FB4 F8 05              5237 	lda	hl,5(sp)
   0FB6 22                 5238 	ld	(hl+),a
   0FB7 72                 5239 	ld	(hl),d
                           5240 ;	genPlus
                           5241 ;	AOP_STK for _main_sloc0_1_0
                           5242 ;	genPlusIncr
                           5243 ;	Can't optimise plus by inc, falling back to the normal way
   0FB8 21 03 00           5244 	ld	hl,#0x0003
   0FBB 09                 5245 	add	hl,bc
   0FBC 7D                 5246 	ld	a,l
   0FBD 54                 5247 	ld	d,h
   0FBE F8 0A              5248 	lda	hl,10(sp)
                           5249 ;	genPointerGet
                           5250 ;	AOP_STK for _main_sloc0_1_0
   0FC0 22                 5251 	ld	(hl+),a
   0FC1 72                 5252 	ld	(hl),d
   0FC2 5F                 5253 	ld	e,a
   0FC3 1A                 5254 	ld	a,(de)
                           5255 ;	genAssign (pointer)
                           5256 ;	AOP_STK for _main_sloc3_1_0
   0FC4 F8 05              5257 	lda	hl,5(sp)
   0FC6 5E                 5258 	ld	e,(hl)
   0FC7 23                 5259 	inc	hl
   0FC8 56                 5260 	ld	d,(hl)
   0FC9 12                 5261 	ld	(de),a
                           5262 ;	main.c 389
                           5263 ;	genPlus
                           5264 ;	AOP_STK for _main_sloc1_1_0
                           5265 ;	AOP_STK for _main_sloc3_1_0
                           5266 ;	genPlusIncr
                           5267 ;	Can't optimise plus by inc, falling back to the normal way
   0FCA 23                 5268 	inc	hl
   0FCB 23                 5269 	inc	hl
   0FCC 5E                 5270 	ld	e,(hl)
   0FCD 23                 5271 	inc	hl
   0FCE 56                 5272 	ld	d,(hl)
   0FCF 21 04 00           5273 	ld	hl,#0x0004
   0FD2 19                 5274 	add	hl,de
   0FD3 7D                 5275 	ld	a,l
   0FD4 54                 5276 	ld	d,h
   0FD5 F8 05              5277 	lda	hl,5(sp)
   0FD7 22                 5278 	ld	(hl+),a
   0FD8 72                 5279 	ld	(hl),d
                           5280 ;	genPlus
                           5281 ;	AOP_STK for _main_sloc0_1_0
                           5282 ;	genPlusIncr
                           5283 ;	Can't optimise plus by inc, falling back to the normal way
   0FD9 21 04 00           5284 	ld	hl,#0x0004
   0FDC 09                 5285 	add	hl,bc
   0FDD 7D                 5286 	ld	a,l
   0FDE 54                 5287 	ld	d,h
   0FDF F8 0A              5288 	lda	hl,10(sp)
                           5289 ;	genPointerGet
                           5290 ;	AOP_STK for _main_sloc0_1_0
   0FE1 22                 5291 	ld	(hl+),a
   0FE2 72                 5292 	ld	(hl),d
   0FE3 5F                 5293 	ld	e,a
   0FE4 1A                 5294 	ld	a,(de)
                           5295 ;	genAssign (pointer)
                           5296 ;	AOP_STK for _main_sloc3_1_0
   0FE5 F8 05              5297 	lda	hl,5(sp)
   0FE7 5E                 5298 	ld	e,(hl)
   0FE8 23                 5299 	inc	hl
   0FE9 56                 5300 	ld	d,(hl)
   0FEA 12                 5301 	ld	(de),a
                           5302 ;	main.c 390
                           5303 ;	genAssign (pointer)
                           5304 ;	AOP_STK for _main_sloc1_1_0
                           5305 ;	AOP_STK for _main_next_snaketail_sprite_id_1_1
   0FEB 23                 5306 	inc	hl
   0FEC 23                 5307 	inc	hl
   0FED 5E                 5308 	ld	e,(hl)
   0FEE 23                 5309 	inc	hl
   0FEF 56                 5310 	ld	d,(hl)
   0FF0 F8 10              5311 	lda	hl,16(sp)
   0FF2 7E                 5312 	ld	a,(hl)
   0FF3 12                 5313 	ld	(de),a
                           5314 ;	main.c 391
                           5315 ;	genIpush
                           5316 ; _saveRegsForCall: sendSetSize: 0 deInUse: 0 bcInUse: 1 deSending: 0
   0FF4 C5                 5317 	push	bc
                           5318 ;	AOP_HL for _SNAKE_BODY
   0FF5 21 C2 02           5319 	ld	hl,#_SNAKE_BODY
   0FF8 7E                 5320 	ld	a,(hl)
   0FF9 F5                 5321 	push	af
   0FFA 33                 5322 	inc	sp
                           5323 ;	genIpush
                           5324 ;	AOP_STK for _main_next_snaketail_sprite_id_1_1
   0FFB F8 13              5325 	lda	hl,19(sp)
   0FFD 7E                 5326 	ld	a,(hl)
   0FFE F5                 5327 	push	af
   0FFF 33                 5328 	inc	sp
                           5329 ;	genCall
   1000 CD 00 00           5330 	call	_set_sprite_tile
   1003 E8 02              5331 	lda	sp,2(sp)
   1005 C1                 5332 	pop	bc
                           5333 ;	main.c 392
                           5334 ;	genIpush
                           5335 ; _saveRegsForCall: sendSetSize: 0 deInUse: 0 bcInUse: 1 deSending: 0
   1006 C5                 5336 	push	bc
                           5337 ;	AOP_STK for _main_sloc2_1_0
   1007 F8 09              5338 	lda	hl,9(sp)
   1009 7E                 5339 	ld	a,(hl)
   100A F5                 5340 	push	af
   100B 33                 5341 	inc	sp
                           5342 ;	genIpush
                           5343 ;	AOP_STK for _main_sloc6_1_0
   100C F8 03              5344 	lda	hl,3(sp)
   100E 7E                 5345 	ld	a,(hl)
   100F F5                 5346 	push	af
   1010 33                 5347 	inc	sp
                           5348 ;	genIpush
                           5349 ;	AOP_STK for _main_next_snaketail_sprite_id_1_1
   1011 F8 14              5350 	lda	hl,20(sp)
   1013 7E                 5351 	ld	a,(hl)
   1014 F5                 5352 	push	af
   1015 33                 5353 	inc	sp
                           5354 ;	genCall
   1016 CD 00 00           5355 	call	_move_sprite
   1019 E8 03              5356 	lda	sp,3(sp)
   101B C1                 5357 	pop	bc
                           5358 ;	main.c 393
                           5359 ;	genPlus
                           5360 ;	genPlusIncr
   101C 21 05 00           5361 	ld	hl,#0x0005
   101F 09                 5362 	add	hl,bc
                           5363 ;	genAssign (pointer)
                           5364 ;	AOP_STK for _main_sloc1_1_0
   1020 5D                 5365 	ld	e,l
   1021 54                 5366 	ld	d,h
   1022 F8 08              5367 	lda	hl,8(sp)
   1024 7E                 5368 	ld	a,(hl)
   1025 12                 5369 	ld	(de),a
   1026 13                 5370 	inc	de
   1027 23                 5371 	inc	hl
   1028 7E                 5372 	ld	a,(hl)
   1029 12                 5373 	ld	(de),a
                           5374 ;	main.c 394
                           5375 ;	genPlus
                           5376 ;	AOP_STK for _main_sloc1_1_0
                           5377 ;	genPlusIncr
                           5378 ;	Can't optimise plus by inc, falling back to the normal way
   102A 2B                 5379 	dec	hl
   102B 5E                 5380 	ld	e,(hl)
   102C 23                 5381 	inc	hl
   102D 56                 5382 	ld	d,(hl)
   102E 21 05 00           5383 	ld	hl,#0x0005
   1031 19                 5384 	add	hl,de
   1032 7D                 5385 	ld	a,l
   1033 54                 5386 	ld	d,h
   1034 6F                 5387 	ld	l,a
   1035 62                 5388 	ld	h,d
                           5389 ;	genAssign (pointer)
   1036 5D                 5390 	ld	e,l
   1037 54                 5391 	ld	d,h
   1038 3E 00              5392 	ld	a,#0x00
   103A 12                 5393 	ld	(de),a
   103B 13                 5394 	inc	de
   103C 3E 00              5395 	ld	a,#0x00
   103E 12                 5396 	ld	(de),a
                           5397 ;	main.c 395
                           5398 ;	genPlus
                           5399 ;	AOP_STK for _main_next_snaketail_sprite_id_1_1
                           5400 ;	genPlusIncr
   103F F8 10              5401 	lda	hl,16(sp)
   1041 34                 5402 	inc	(hl)
                           5403 ;	main.c 396
                           5404 ;	genPlus
                           5405 ;	AOP_STK for _main_snake_tail_ind_1_1
                           5406 ;	genPlusIncr
   1042 2B                 5407 	dec	hl
   1043 34                 5408 	inc	(hl)
                           5409 ;	genGoto
   1044 C3 F0 11           5410 	jp	00134$
                           5411 ;	genLabel
   1047                    5412 00123$:
                           5413 ;	main.c 399
                           5414 ;	genIpush
                           5415 ; _saveRegsForCall: sendSetSize: 0 deInUse: 0 bcInUse: 0 deSending: 0
                           5416 ;	AOP_STK for _main_sloc4_1_0
   1047 F8 03              5417 	lda	hl,3(sp)
   1049 2A                 5418 	ld	a,(hl+)
   104A 66                 5419 	ld	h,(hl)
   104B 6F                 5420 	ld	l,a
   104C E5                 5421 	push	hl
                           5422 ;	genCall
   104D CD 1C 02           5423 	call	_head_tail_collision
   1050 4B                 5424 	ld	c,e
   1051 E8 02              5425 	lda	sp,2(sp)
                           5426 ;	genIfx
   1053 AF                 5427 	xor	a,a
   1054 B1                 5428 	or	a,c
   1055 CA F0 11           5429 	jp	z,00134$
                           5430 ;	main.c 401
                           5431 ;	genAssign
                           5432 ;	AOP_STK for _main_game_over_1_1
   1058 F8 0E              5433 	lda	hl,14(sp)
   105A 36 01              5434 	ld	(hl),#0x01
                           5435 ;	main.c 404
                           5436 ;	genGoto
   105C C3 F0 11           5437 	jp	00134$
                           5438 ;	main.c 407
                           5439 ;	genLabel
   105F                    5440 00125$:
                           5441 ;	genAddrOf
   105F F8 11              5442 	lda	hl,17(sp)
   1061 4D                 5443 	ld	c,l
   1062 44                 5444 	ld	b,h
                           5445 ;	genAddrOf
                           5446 ;	AOP_STK for _main_sloc4_1_0
   1063 F8 34              5447 	lda	hl,52(sp)
   1065 7D                 5448 	ld	a,l
   1066 54                 5449 	ld	d,h
   1067 F8 03              5450 	lda	hl,3(sp)
   1069 22                 5451 	ld	(hl+),a
   106A 72                 5452 	ld	(hl),d
                           5453 ;	genIpush
                           5454 ; _saveRegsForCall: sendSetSize: 0 deInUse: 0 bcInUse: 0 deSending: 0
   106B C5                 5455 	push	bc
                           5456 ;	genIpush
   106C 21 08 00           5457 	ld	hl,#0x0008
   106F E5                 5458 	push	hl
                           5459 ;	genIpush
                           5460 ;	AOP_STK for _main_sloc4_1_0
   1070 F8 07              5461 	lda	hl,7(sp)
   1072 2A                 5462 	ld	a,(hl+)
   1073 66                 5463 	ld	h,(hl)
   1074 6F                 5464 	ld	l,a
   1075 E5                 5465 	push	hl
                           5466 ;	genCall
   1076 CD 6E 04           5467 	call	_move_snake
   1079 E8 06              5468 	lda	sp,6(sp)
                           5469 ;	main.c 408
                           5470 ;	genIpush
                           5471 ; _saveRegsForCall: sendSetSize: 0 deInUse: 0 bcInUse: 0 deSending: 0
                           5472 ;	AOP_STK for _main_sloc5_1_0
   107B F8 01              5473 	lda	hl,1(sp)
   107D 2A                 5474 	ld	a,(hl+)
   107E 66                 5475 	ld	h,(hl)
   107F 6F                 5476 	ld	l,a
   1080 E5                 5477 	push	hl
                           5478 ;	genIpush
                           5479 ;	AOP_STK for _main_sloc4_1_0
   1081 F8 05              5480 	lda	hl,5(sp)
   1083 2A                 5481 	ld	a,(hl+)
   1084 66                 5482 	ld	h,(hl)
   1085 6F                 5483 	ld	l,a
   1086 E5                 5484 	push	hl
                           5485 ;	genCall
   1087 CD 82 00           5486 	call	_sprite_collision
   108A 4B                 5487 	ld	c,e
   108B E8 04              5488 	lda	sp,4(sp)
                           5489 ;	genIfx
   108D AF                 5490 	xor	a,a
   108E B1                 5491 	or	a,c
   108F CA DB 11           5492 	jp	z,00131$
                           5493 ;	main.c 409
                           5494 ;	genIpush
                           5495 ; _saveRegsForCall: sendSetSize: 0 deInUse: 0 bcInUse: 0 deSending: 0
                           5496 ;	AOP_STK for _main_sloc4_1_0
   1092 F8 03              5497 	lda	hl,3(sp)
   1094 2A                 5498 	ld	a,(hl+)
   1095 66                 5499 	ld	h,(hl)
   1096 6F                 5500 	ld	l,a
   1097 E5                 5501 	push	hl
                           5502 ;	genIpush
   1098 21 F8 08           5503 	ld	hl,#0x08F8
   109B E5                 5504 	push	hl
                           5505 ;	genIpush
                           5506 ;	AOP_STK for _main_sloc5_1_0
   109C F8 05              5507 	lda	hl,5(sp)
   109E 2A                 5508 	ld	a,(hl+)
   109F 66                 5509 	ld	h,(hl)
   10A0 6F                 5510 	ld	l,a
   10A1 E5                 5511 	push	hl
                           5512 ;	genCall
   10A2 CD 81 07           5513 	call	_movefood
   10A5 E8 06              5514 	lda	sp,6(sp)
                           5515 ;	main.c 410
                           5516 ;	genPlus
                           5517 ;	AOP_STK for _main_score_1_1
                           5518 ;	AOP_STK for _main_score_increment_1_1
                           5519 ;	Can't optimise plus by inc, falling back to the normal way
   10A7 F8 0D              5520 	lda	hl,13(sp)
   10A9 7E                 5521 	ld	a,(hl)
   10AA 2B                 5522 	dec	hl
   10AB 86                 5523 	add	a,(hl)
   10AC 23                 5524 	inc	hl
                           5525 ;	main.c 411
                           5526 ;	genCmpLt
                           5527 ;	AOP_STK for _main_snake_tail_ind_1_1
   10AD 22                 5528 	ld	(hl+),a
   10AE 23                 5529 	inc	hl
   10AF 7E                 5530 	ld	a,(hl)
   10B0 FE 25              5531 	cp	#0x25
   10B2 D2 F0 11           5532 	jp	nc,00134$
                           5533 ;	main.c 412
                           5534 ;	genAddrOf
   10B5 F8 34              5535 	lda	hl,52(sp)
   10B7 4D                 5536 	ld	c,l
   10B8 44                 5537 	ld	b,h
                           5538 ;	genMult
                           5539 ;	AOP_STK for _main_snake_tail_ind_1_1
                           5540 ;	AOP_STK for _main_sloc3_1_0
   10B9 F8 0F              5541 	lda	hl,15(sp)
   10BB 5E                 5542 	ld	e,(hl)
   10BC 16 00              5543 	ld	d,#0x00
   10BE 6B                 5544 	ld	l,e
   10BF 62                 5545 	ld	h,d
   10C0 29                 5546 	add	hl,hl
   10C1 19                 5547 	add	hl,de
   10C2 29                 5548 	add	hl,hl
   10C3 19                 5549 	add	hl,de
   10C4 7D                 5550 	ld	a,l
   10C5 54                 5551 	ld	d,h
   10C6 F8 05              5552 	lda	hl,5(sp)
   10C8 22                 5553 	ld	(hl+),a
   10C9 72                 5554 	ld	(hl),d
                           5555 ;	genPlus
                           5556 ;	AOP_STK for _main_sloc3_1_0
                           5557 ;	AOP_STK for _main_sloc1_1_0
                           5558 ;	Can't optimise plus by inc, falling back to the normal way
   10CA 2B                 5559 	dec	hl
   10CB 2A                 5560 	ld	a,(hl+)
   10CC 66                 5561 	ld	h,(hl)
   10CD 6F                 5562 	ld	l,a
   10CE 09                 5563 	add	hl,bc
   10CF 7D                 5564 	ld	a,l
   10D0 54                 5565 	ld	d,h
   10D1 F8 08              5566 	lda	hl,8(sp)
   10D3 22                 5567 	ld	(hl+),a
   10D4 72                 5568 	ld	(hl),d
                           5569 ;	genPlus
                           5570 ;	AOP_STK for _main_sloc1_1_0
                           5571 ;	AOP_STK for _main_sloc3_1_0
                           5572 ;	genPlusIncr
                           5573 ;	Can't optimise plus by inc, falling back to the normal way
   10D5 2B                 5574 	dec	hl
   10D6 5E                 5575 	ld	e,(hl)
   10D7 23                 5576 	inc	hl
   10D8 56                 5577 	ld	d,(hl)
   10D9 21 01 00           5578 	ld	hl,#0x0001
   10DC 19                 5579 	add	hl,de
   10DD 7D                 5580 	ld	a,l
   10DE 54                 5581 	ld	d,h
   10DF F8 05              5582 	lda	hl,5(sp)
   10E1 22                 5583 	ld	(hl+),a
   10E2 72                 5584 	ld	(hl),d
                           5585 ;	genMinus
                           5586 ;	AOP_STK for _main_snake_tail_ind_1_1
                           5587 ;	AOP_STK for _main_sloc6_1_0
   10E3 F8 0F              5588 	lda	hl,15(sp)
   10E5 7E                 5589 	ld	a,(hl)
   10E6 C6 FF              5590 	add	a,#0xFF
   10E8 F8 00              5591 	lda	hl,0(sp)
                           5592 ;	genMult
                           5593 ;	AOP_STK for _main_sloc6_1_0
                           5594 ;	AOP_STK for _main_sloc0_1_0
   10EA 77                 5595 	ld      (hl),a
   10EB 5F                 5596 	ld      e,a
   10EC 16 00              5597 	ld	d,#0x00
   10EE 6B                 5598 	ld	l,e
   10EF 62                 5599 	ld	h,d
   10F0 29                 5600 	add	hl,hl
   10F1 19                 5601 	add	hl,de
   10F2 29                 5602 	add	hl,hl
   10F3 19                 5603 	add	hl,de
   10F4 7D                 5604 	ld	a,l
   10F5 54                 5605 	ld	d,h
   10F6 F8 0A              5606 	lda	hl,10(sp)
   10F8 22                 5607 	ld	(hl+),a
   10F9 72                 5608 	ld	(hl),d
                           5609 ;	genPlus
                           5610 ;	AOP_STK for _main_sloc0_1_0
                           5611 ;	Can't optimise plus by inc, falling back to the normal way
   10FA 2B                 5612 	dec	hl
   10FB 2A                 5613 	ld	a,(hl+)
   10FC 66                 5614 	ld	h,(hl)
   10FD 6F                 5615 	ld	l,a
   10FE 09                 5616 	add	hl,bc
   10FF 4D                 5617 	ld	c,l
   1100 44                 5618 	ld	b,h
                           5619 ;	genPlus
                           5620 ;	AOP_STK for _main_sloc0_1_0
                           5621 ;	genPlusIncr
                           5622 ;	Can't optimise plus by inc, falling back to the normal way
   1101 21 01 00           5623 	ld	hl,#0x0001
   1104 09                 5624 	add	hl,bc
   1105 7D                 5625 	ld	a,l
   1106 54                 5626 	ld	d,h
   1107 F8 0A              5627 	lda	hl,10(sp)
                           5628 ;	genPointerGet
                           5629 ;	AOP_STK for _main_sloc0_1_0
                           5630 ;	AOP_STK for _main_sloc6_1_0
   1109 22                 5631 	ld	(hl+),a
   110A 72                 5632 	ld	(hl),d
   110B 5F                 5633 	ld	e,a
   110C 1A                 5634 	ld	a,(de)
   110D F8 00              5635 	lda	hl,0(sp)
   110F 77                 5636 	ld	(hl),a
                           5637 ;	genAssign (pointer)
                           5638 ;	AOP_STK for _main_sloc3_1_0
                           5639 ;	AOP_STK for _main_sloc6_1_0
   1110 F8 05              5640 	lda	hl,5(sp)
   1112 5E                 5641 	ld	e,(hl)
   1113 23                 5642 	inc	hl
   1114 56                 5643 	ld	d,(hl)
   1115 F8 00              5644 	lda	hl,0(sp)
   1117 7E                 5645 	ld	a,(hl)
   1118 12                 5646 	ld	(de),a
                           5647 ;	main.c 413
                           5648 ;	genPlus
                           5649 ;	AOP_STK for _main_sloc1_1_0
                           5650 ;	AOP_STK for _main_sloc3_1_0
                           5651 ;	genPlusIncr
                           5652 ;	Can't optimise plus by inc, falling back to the normal way
   1119 F8 08              5653 	lda	hl,8(sp)
   111B 5E                 5654 	ld	e,(hl)
   111C 23                 5655 	inc	hl
   111D 56                 5656 	ld	d,(hl)
   111E 21 02 00           5657 	ld	hl,#0x0002
   1121 19                 5658 	add	hl,de
   1122 7D                 5659 	ld	a,l
   1123 54                 5660 	ld	d,h
   1124 F8 05              5661 	lda	hl,5(sp)
   1126 22                 5662 	ld	(hl+),a
   1127 72                 5663 	ld	(hl),d
                           5664 ;	genPlus
                           5665 ;	AOP_STK for _main_sloc0_1_0
                           5666 ;	genPlusIncr
                           5667 ;	Can't optimise plus by inc, falling back to the normal way
   1128 21 02 00           5668 	ld	hl,#0x0002
   112B 09                 5669 	add	hl,bc
   112C 7D                 5670 	ld	a,l
   112D 54                 5671 	ld	d,h
   112E F8 0A              5672 	lda	hl,10(sp)
                           5673 ;	genPointerGet
                           5674 ;	AOP_STK for _main_sloc0_1_0
                           5675 ;	AOP_STK for _main_sloc2_1_0
   1130 22                 5676 	ld	(hl+),a
   1131 72                 5677 	ld	(hl),d
   1132 5F                 5678 	ld	e,a
   1133 1A                 5679 	ld	a,(de)
   1134 F8 07              5680 	lda	hl,7(sp)
                           5681 ;	genAssign (pointer)
                           5682 ;	AOP_STK for _main_sloc3_1_0
                           5683 ;	AOP_STK for _main_sloc2_1_0
   1136 32                 5684 	ld      (hl-),a
   1137 2B                 5685 	dec	hl
   1138 5E                 5686 	ld	e,(hl)
   1139 23                 5687 	inc	hl
   113A 56                 5688 	ld	d,(hl)
   113B 23                 5689 	inc	hl
   113C 7E                 5690 	ld	a,(hl)
   113D 12                 5691 	ld	(de),a
                           5692 ;	main.c 414
                           5693 ;	genPlus
                           5694 ;	AOP_STK for _main_sloc1_1_0
                           5695 ;	AOP_STK for _main_sloc3_1_0
                           5696 ;	genPlusIncr
                           5697 ;	Can't optimise plus by inc, falling back to the normal way
   113E 23                 5698 	inc	hl
   113F 5E                 5699 	ld	e,(hl)
   1140 23                 5700 	inc	hl
   1141 56                 5701 	ld	d,(hl)
   1142 21 03 00           5702 	ld	hl,#0x0003
   1145 19                 5703 	add	hl,de
   1146 7D                 5704 	ld	a,l
   1147 54                 5705 	ld	d,h
   1148 F8 05              5706 	lda	hl,5(sp)
   114A 22                 5707 	ld	(hl+),a
   114B 72                 5708 	ld	(hl),d
                           5709 ;	genPlus
                           5710 ;	AOP_STK for _main_sloc0_1_0
                           5711 ;	genPlusIncr
                           5712 ;	Can't optimise plus by inc, falling back to the normal way
   114C 21 03 00           5713 	ld	hl,#0x0003
   114F 09                 5714 	add	hl,bc
   1150 7D                 5715 	ld	a,l
   1151 54                 5716 	ld	d,h
   1152 F8 0A              5717 	lda	hl,10(sp)
                           5718 ;	genPointerGet
                           5719 ;	AOP_STK for _main_sloc0_1_0
   1154 22                 5720 	ld	(hl+),a
   1155 72                 5721 	ld	(hl),d
   1156 5F                 5722 	ld	e,a
   1157 1A                 5723 	ld	a,(de)
                           5724 ;	genAssign (pointer)
                           5725 ;	AOP_STK for _main_sloc3_1_0
   1158 F8 05              5726 	lda	hl,5(sp)
   115A 5E                 5727 	ld	e,(hl)
   115B 23                 5728 	inc	hl
   115C 56                 5729 	ld	d,(hl)
   115D 12                 5730 	ld	(de),a
                           5731 ;	main.c 415
                           5732 ;	genPlus
                           5733 ;	AOP_STK for _main_sloc1_1_0
                           5734 ;	AOP_STK for _main_sloc3_1_0
                           5735 ;	genPlusIncr
                           5736 ;	Can't optimise plus by inc, falling back to the normal way
   115E 23                 5737 	inc	hl
   115F 23                 5738 	inc	hl
   1160 5E                 5739 	ld	e,(hl)
   1161 23                 5740 	inc	hl
   1162 56                 5741 	ld	d,(hl)
   1163 21 04 00           5742 	ld	hl,#0x0004
   1166 19                 5743 	add	hl,de
   1167 7D                 5744 	ld	a,l
   1168 54                 5745 	ld	d,h
   1169 F8 05              5746 	lda	hl,5(sp)
   116B 22                 5747 	ld	(hl+),a
   116C 72                 5748 	ld	(hl),d
                           5749 ;	genPlus
                           5750 ;	AOP_STK for _main_sloc0_1_0
                           5751 ;	genPlusIncr
                           5752 ;	Can't optimise plus by inc, falling back to the normal way
   116D 21 04 00           5753 	ld	hl,#0x0004
   1170 09                 5754 	add	hl,bc
   1171 7D                 5755 	ld	a,l
   1172 54                 5756 	ld	d,h
   1173 F8 0A              5757 	lda	hl,10(sp)
                           5758 ;	genPointerGet
                           5759 ;	AOP_STK for _main_sloc0_1_0
   1175 22                 5760 	ld	(hl+),a
   1176 72                 5761 	ld	(hl),d
   1177 5F                 5762 	ld	e,a
   1178 1A                 5763 	ld	a,(de)
                           5764 ;	genAssign (pointer)
                           5765 ;	AOP_STK for _main_sloc3_1_0
   1179 F8 05              5766 	lda	hl,5(sp)
   117B 5E                 5767 	ld	e,(hl)
   117C 23                 5768 	inc	hl
   117D 56                 5769 	ld	d,(hl)
   117E 12                 5770 	ld	(de),a
                           5771 ;	main.c 416
                           5772 ;	genAssign (pointer)
                           5773 ;	AOP_STK for _main_sloc1_1_0
                           5774 ;	AOP_STK for _main_next_snaketail_sprite_id_1_1
   117F 23                 5775 	inc	hl
   1180 23                 5776 	inc	hl
   1181 5E                 5777 	ld	e,(hl)
   1182 23                 5778 	inc	hl
   1183 56                 5779 	ld	d,(hl)
   1184 F8 10              5780 	lda	hl,16(sp)
   1186 7E                 5781 	ld	a,(hl)
   1187 12                 5782 	ld	(de),a
                           5783 ;	main.c 417
                           5784 ;	genIpush
                           5785 ; _saveRegsForCall: sendSetSize: 0 deInUse: 0 bcInUse: 1 deSending: 0
   1188 C5                 5786 	push	bc
                           5787 ;	AOP_HL for _SNAKE_BODY
   1189 21 C2 02           5788 	ld	hl,#_SNAKE_BODY
   118C 7E                 5789 	ld	a,(hl)
   118D F5                 5790 	push	af
   118E 33                 5791 	inc	sp
                           5792 ;	genIpush
                           5793 ;	AOP_STK for _main_next_snaketail_sprite_id_1_1
   118F F8 13              5794 	lda	hl,19(sp)
   1191 7E                 5795 	ld	a,(hl)
   1192 F5                 5796 	push	af
   1193 33                 5797 	inc	sp
                           5798 ;	genCall
   1194 CD 00 00           5799 	call	_set_sprite_tile
   1197 E8 02              5800 	lda	sp,2(sp)
   1199 C1                 5801 	pop	bc
                           5802 ;	main.c 418
                           5803 ;	genIpush
                           5804 ; _saveRegsForCall: sendSetSize: 0 deInUse: 0 bcInUse: 1 deSending: 0
   119A C5                 5805 	push	bc
                           5806 ;	AOP_STK for _main_sloc2_1_0
   119B F8 09              5807 	lda	hl,9(sp)
   119D 7E                 5808 	ld	a,(hl)
   119E F5                 5809 	push	af
   119F 33                 5810 	inc	sp
                           5811 ;	genIpush
                           5812 ;	AOP_STK for _main_sloc6_1_0
   11A0 F8 03              5813 	lda	hl,3(sp)
   11A2 7E                 5814 	ld	a,(hl)
   11A3 F5                 5815 	push	af
   11A4 33                 5816 	inc	sp
                           5817 ;	genIpush
                           5818 ;	AOP_STK for _main_next_snaketail_sprite_id_1_1
   11A5 F8 14              5819 	lda	hl,20(sp)
   11A7 7E                 5820 	ld	a,(hl)
   11A8 F5                 5821 	push	af
   11A9 33                 5822 	inc	sp
                           5823 ;	genCall
   11AA CD 00 00           5824 	call	_move_sprite
   11AD E8 03              5825 	lda	sp,3(sp)
   11AF C1                 5826 	pop	bc
                           5827 ;	main.c 419
                           5828 ;	genPlus
                           5829 ;	genPlusIncr
   11B0 21 05 00           5830 	ld	hl,#0x0005
   11B3 09                 5831 	add	hl,bc
                           5832 ;	genAssign (pointer)
                           5833 ;	AOP_STK for _main_sloc1_1_0
   11B4 5D                 5834 	ld	e,l
   11B5 54                 5835 	ld	d,h
   11B6 F8 08              5836 	lda	hl,8(sp)
   11B8 7E                 5837 	ld	a,(hl)
   11B9 12                 5838 	ld	(de),a
   11BA 13                 5839 	inc	de
   11BB 23                 5840 	inc	hl
   11BC 7E                 5841 	ld	a,(hl)
   11BD 12                 5842 	ld	(de),a
                           5843 ;	main.c 420
                           5844 ;	genPlus
                           5845 ;	AOP_STK for _main_sloc1_1_0
                           5846 ;	genPlusIncr
                           5847 ;	Can't optimise plus by inc, falling back to the normal way
   11BE 2B                 5848 	dec	hl
   11BF 5E                 5849 	ld	e,(hl)
   11C0 23                 5850 	inc	hl
   11C1 56                 5851 	ld	d,(hl)
   11C2 21 05 00           5852 	ld	hl,#0x0005
   11C5 19                 5853 	add	hl,de
   11C6 7D                 5854 	ld	a,l
   11C7 54                 5855 	ld	d,h
   11C8 6F                 5856 	ld	l,a
   11C9 62                 5857 	ld	h,d
                           5858 ;	genAssign (pointer)
   11CA 5D                 5859 	ld	e,l
   11CB 54                 5860 	ld	d,h
   11CC 3E 00              5861 	ld	a,#0x00
   11CE 12                 5862 	ld	(de),a
   11CF 13                 5863 	inc	de
   11D0 3E 00              5864 	ld	a,#0x00
   11D2 12                 5865 	ld	(de),a
                           5866 ;	main.c 421
                           5867 ;	genPlus
                           5868 ;	AOP_STK for _main_next_snaketail_sprite_id_1_1
                           5869 ;	genPlusIncr
   11D3 F8 10              5870 	lda	hl,16(sp)
   11D5 34                 5871 	inc	(hl)
                           5872 ;	main.c 422
                           5873 ;	genPlus
                           5874 ;	AOP_STK for _main_snake_tail_ind_1_1
                           5875 ;	genPlusIncr
   11D6 2B                 5876 	dec	hl
   11D7 34                 5877 	inc	(hl)
                           5878 ;	genGoto
   11D8 C3 F0 11           5879 	jp	00134$
                           5880 ;	genLabel
   11DB                    5881 00131$:
                           5882 ;	main.c 425
                           5883 ;	genIpush
                           5884 ; _saveRegsForCall: sendSetSize: 0 deInUse: 0 bcInUse: 0 deSending: 0
                           5885 ;	AOP_STK for _main_sloc4_1_0
   11DB F8 03              5886 	lda	hl,3(sp)
   11DD 2A                 5887 	ld	a,(hl+)
   11DE 66                 5888 	ld	h,(hl)
   11DF 6F                 5889 	ld	l,a
   11E0 E5                 5890 	push	hl
                           5891 ;	genCall
   11E1 CD 1C 02           5892 	call	_head_tail_collision
   11E4 4B                 5893 	ld	c,e
   11E5 E8 02              5894 	lda	sp,2(sp)
                           5895 ;	genIfx
   11E7 AF                 5896 	xor	a,a
   11E8 B1                 5897 	or	a,c
   11E9 CA F0 11           5898 	jp	z,00134$
                           5899 ;	main.c 427
                           5900 ;	genAssign
                           5901 ;	AOP_STK for _main_game_over_1_1
   11EC F8 0E              5902 	lda	hl,14(sp)
   11EE 36 01              5903 	ld	(hl),#0x01
                           5904 ;	main.c 434
                           5905 ;	genLabel
   11F0                    5906 00134$:
                           5907 ;	main.c 435
                           5908 ;	genRightShift
                           5909 ;	AOP_STK for _main_snake_tail_ind_1_1
   11F0 F8 0F              5910 	lda	hl,15(sp)
   11F2 4E                 5911 	ld	c,(hl)
   11F3 CB 39              5912 	srl	c
   11F5 CB 39              5913 	srl	c
                           5914 ;	genPlus
                           5915 ;	AOP_STK for _main_score_increment_1_1
                           5916 ;	genPlusIncr
                           5917 ;	Can't optimise plus by inc, falling back to the normal way
   11F7 79                 5918 	ld	a,c
   11F8 C6 01              5919 	add	a,#0x01
   11FA F8 0C              5920 	lda	hl,12(sp)
   11FC 77                 5921 	ld	(hl),a
                           5922 ;	main.c 437
                           5923 ;	genIpush
                           5924 ; _saveRegsForCall: sendSetSize: 0 deInUse: 0 bcInUse: 0 deSending: 0
   11FD 3E 05              5925 	ld	a,#0x05
   11FF F5                 5926 	push	af
   1200 33                 5927 	inc	sp
                           5928 ;	genCall
   1201 CD 00 00           5929 	call	_wait
   1204 E8 01              5930 	lda	sp,1(sp)
                           5931 ;	genGoto
   1206 C3 80 0B           5932 	jp	00135$
                           5933 ;	genLabel
   1209                    5934 00137$:
                           5935 ;	main.c 440
                           5936 ;	genIpush
                           5937 ; _saveRegsForCall: sendSetSize: 0 deInUse: 0 bcInUse: 0 deSending: 0
                           5938 ;	AOP_STK for _main_score_1_1
   1209 F8 0D              5939 	lda	hl,13(sp)
   120B 7E                 5940 	ld	a,(hl)
   120C F5                 5941 	push	af
   120D 33                 5942 	inc	sp
                           5943 ;	genCall
   120E CD 14 00           5944 	call	_game_over_screen
   1211 E8 01              5945 	lda	sp,1(sp)
                           5946 ;	genLabel
   1213                    5947 00138$:
                           5948 ;	genEndFunction
   1213 21 37 01           5949 	ld	hl,#311
   1216 39                 5950 	add	hl,sp
   1217 F9                 5951 	ld	sp,hl
   1218 C9                 5952 	ret
   1219                    5953 ___main_end:
                           5954 	.area _CODE
ASxxxx Assembler V01.75  (GameBoy Z80-like CPU), page 1.

Symbol Table

  1 _FOOD_BISCUIT                      02C5 GR
  1 _FOOD_CARROT                       02C6 GR
  1 _FOOD_MEMIND                       02C3 GR
  1 _FOOD_NTILES                       02C4 GR
  1 _FOOD_TURNIP                       02C7 GR
  1 _SCREEN_HEIGHT                     02BB GR
  1 _SCREEN_L                          02B8 GR
  1 _SCREEN_T                          02BA GR
  1 _SCREEN_WIDTH                      02B9 GR
  1 _SNAKE_BODY                        02C2 GR
  1 _SNAKE_DEAD_HEAD_L                 02C1 GR
  1 _SNAKE_DEAD_HEAD_UP                02C0 GR
  1 _SNAKE_HEAD_L                      02BF GR
  1 _SNAKE_HEAD_UP                     02BE GR
  1 _SNAKE_MEMIND                      02BC GR
  1 _SNAKE_NTILES                      02BD GR
  0 ___background_collision_end        046E R
  0 ___background_collision_start      0285 R
  0 ___game_over_screen_end            0052 R
  0 ___game_over_screen_start          0014 R
  0 ___head_tail_collision_end         0285 R
  0 ___head_tail_collision_start       021C R
  0 ___main_end                        1219 R
  0 ___main_start                      0875 R
  0 ___move_snake_end                  0781 R
  0 ___move_snake_start                046E R
  0 ___movefood_end                    0875 R
  0 ___movefood_start                  0781 R
  0 ___sprite_collision_end            021C R
  0 ___sprite_collision_start          0082 R
  0 ___wait_end                        0014 R
  0 ___wait_start                      0000 R
    __initrleblock                     **** GX
  0 __str_0                            0052 R
  0 __str_1                            0063 R
  0 __str_2                            0073 R
  0 _background_collision              0285 GR
  1 _bkg_map                           0150 GR
  1 _bkg_tiles                         0080 GR
  1 _food                              0050 GR
  0 _game_over_screen                  0014 GR
    _get_sprite_prop                   **** GX
  0 _head_tail_collision               021C GR
    _joypad                            **** GX
  0 _main                              0875 GR
  0 _move_snake                        046E GR
    _move_sprite                       **** GX
  0 _movefood                          0781 GR
    _printf                            **** GX
    _set_bkg_data                      **** GX
    _set_bkg_tiles                     **** GX
    _set_sprite_data                   **** GX
    _set_sprite_prop                   **** GX
    _set_sprite_tile                   **** GX
  1 _snake_round_sprite                0000 GR
  0 _sprite_collision                  0082 GR
  0 _wait                              0000 GR
    _wait_vbl_done                     **** GX

ASxxxx Assembler V01.75  (GameBoy Z80-like CPU), page 2.

Area Table

   0 _CODE                              size 1219   flags 0
   1 _DATA                              size  2C8   flags 0
   2 _OVERLAY                           size    0   flags 0
   3 _ISEG                              size    0   flags 0
   4 _BSEG                              size    0   flags 0
   5 _XSEG                              size    0   flags 0
   6 _GSINIT                            size  251   flags 0
   7 _GSFINAL                           size    0   flags 0
   8 _HOME                              size    0   flags 0
